
/home/logic.lo/project/FD8173-FD8373-IB8373/trunk/apps/app_cluster/../../release/app_cluster_Build/armlinux_release/app/remotefocusd/bin/remotefocusd.out:     file format elf32-littlearm

Disassembly of section .init:

00008f68 <_init>:
    8f68:	e52de004 	push	{lr}		; (str lr, [sp, #-4]!)
    8f6c:	e24dd004 	sub	sp, sp, #4	; 0x4
    8f70:	eb0000d4 	bl	92c8 <call_gmon_start>
    8f74:	e28dd004 	add	sp, sp, #4	; 0x4
    8f78:	e8bd8000 	pop	{pc}
Disassembly of section .plt:

00008f7c <.plt>:
    8f7c:	e52de004 	push	{lr}		; (str lr, [sp, #-4]!)
    8f80:	e59fe004 	ldr	lr, [pc, #4]	; 8f8c <_init+0x24>
    8f84:	e08fe00e 	add	lr, pc, lr
    8f88:	e5bef008 	ldr	pc, [lr, #8]!
    8f8c:	0000e588 	.word	0x0000e588
    8f90:	e28fc600 	add	ip, pc, #0	; 0x0
    8f94:	e28cca0e 	add	ip, ip, #57344	; 0xe000
    8f98:	e5bcf588 	ldr	pc, [ip, #1416]!
    8f9c:	e28fc600 	add	ip, pc, #0	; 0x0
    8fa0:	e28cca0e 	add	ip, ip, #57344	; 0xe000
    8fa4:	e5bcf580 	ldr	pc, [ip, #1408]!
    8fa8:	e28fc600 	add	ip, pc, #0	; 0x0
    8fac:	e28cca0e 	add	ip, ip, #57344	; 0xe000
    8fb0:	e5bcf578 	ldr	pc, [ip, #1400]!
    8fb4:	e28fc600 	add	ip, pc, #0	; 0x0
    8fb8:	e28cca0e 	add	ip, ip, #57344	; 0xe000
    8fbc:	e5bcf570 	ldr	pc, [ip, #1392]!
    8fc0:	e28fc600 	add	ip, pc, #0	; 0x0
    8fc4:	e28cca0e 	add	ip, ip, #57344	; 0xe000
    8fc8:	e5bcf568 	ldr	pc, [ip, #1384]!
    8fcc:	e28fc600 	add	ip, pc, #0	; 0x0
    8fd0:	e28cca0e 	add	ip, ip, #57344	; 0xe000
    8fd4:	e5bcf560 	ldr	pc, [ip, #1376]!
    8fd8:	e28fc600 	add	ip, pc, #0	; 0x0
    8fdc:	e28cca0e 	add	ip, ip, #57344	; 0xe000
    8fe0:	e5bcf558 	ldr	pc, [ip, #1368]!
    8fe4:	e28fc600 	add	ip, pc, #0	; 0x0
    8fe8:	e28cca0e 	add	ip, ip, #57344	; 0xe000
    8fec:	e5bcf550 	ldr	pc, [ip, #1360]!
    8ff0:	e28fc600 	add	ip, pc, #0	; 0x0
    8ff4:	e28cca0e 	add	ip, ip, #57344	; 0xe000
    8ff8:	e5bcf548 	ldr	pc, [ip, #1352]!
    8ffc:	e28fc600 	add	ip, pc, #0	; 0x0
    9000:	e28cca0e 	add	ip, ip, #57344	; 0xe000
    9004:	e5bcf540 	ldr	pc, [ip, #1344]!
    9008:	e28fc600 	add	ip, pc, #0	; 0x0
    900c:	e28cca0e 	add	ip, ip, #57344	; 0xe000
    9010:	e5bcf538 	ldr	pc, [ip, #1336]!
    9014:	e28fc600 	add	ip, pc, #0	; 0x0
    9018:	e28cca0e 	add	ip, ip, #57344	; 0xe000
    901c:	e5bcf530 	ldr	pc, [ip, #1328]!
    9020:	e28fc600 	add	ip, pc, #0	; 0x0
    9024:	e28cca0e 	add	ip, ip, #57344	; 0xe000
    9028:	e5bcf528 	ldr	pc, [ip, #1320]!
    902c:	e28fc600 	add	ip, pc, #0	; 0x0
    9030:	e28cca0e 	add	ip, ip, #57344	; 0xe000
    9034:	e5bcf520 	ldr	pc, [ip, #1312]!
    9038:	e28fc600 	add	ip, pc, #0	; 0x0
    903c:	e28cca0e 	add	ip, ip, #57344	; 0xe000
    9040:	e5bcf518 	ldr	pc, [ip, #1304]!
    9044:	e28fc600 	add	ip, pc, #0	; 0x0
    9048:	e28cca0e 	add	ip, ip, #57344	; 0xe000
    904c:	e5bcf510 	ldr	pc, [ip, #1296]!
    9050:	e28fc600 	add	ip, pc, #0	; 0x0
    9054:	e28cca0e 	add	ip, ip, #57344	; 0xe000
    9058:	e5bcf508 	ldr	pc, [ip, #1288]!
    905c:	e28fc600 	add	ip, pc, #0	; 0x0
    9060:	e28cca0e 	add	ip, ip, #57344	; 0xe000
    9064:	e5bcf500 	ldr	pc, [ip, #1280]!
    9068:	e28fc600 	add	ip, pc, #0	; 0x0
    906c:	e28cca0e 	add	ip, ip, #57344	; 0xe000
    9070:	e5bcf4f8 	ldr	pc, [ip, #1272]!
    9074:	e28fc600 	add	ip, pc, #0	; 0x0
    9078:	e28cca0e 	add	ip, ip, #57344	; 0xe000
    907c:	e5bcf4f0 	ldr	pc, [ip, #1264]!
    9080:	e28fc600 	add	ip, pc, #0	; 0x0
    9084:	e28cca0e 	add	ip, ip, #57344	; 0xe000
    9088:	e5bcf4e8 	ldr	pc, [ip, #1256]!
    908c:	e28fc600 	add	ip, pc, #0	; 0x0
    9090:	e28cca0e 	add	ip, ip, #57344	; 0xe000
    9094:	e5bcf4e0 	ldr	pc, [ip, #1248]!
    9098:	e28fc600 	add	ip, pc, #0	; 0x0
    909c:	e28cca0e 	add	ip, ip, #57344	; 0xe000
    90a0:	e5bcf4d8 	ldr	pc, [ip, #1240]!
    90a4:	e28fc600 	add	ip, pc, #0	; 0x0
    90a8:	e28cca0e 	add	ip, ip, #57344	; 0xe000
    90ac:	e5bcf4d0 	ldr	pc, [ip, #1232]!
    90b0:	e28fc600 	add	ip, pc, #0	; 0x0
    90b4:	e28cca0e 	add	ip, ip, #57344	; 0xe000
    90b8:	e5bcf4c8 	ldr	pc, [ip, #1224]!
    90bc:	e28fc600 	add	ip, pc, #0	; 0x0
    90c0:	e28cca0e 	add	ip, ip, #57344	; 0xe000
    90c4:	e5bcf4c0 	ldr	pc, [ip, #1216]!
    90c8:	e28fc600 	add	ip, pc, #0	; 0x0
    90cc:	e28cca0e 	add	ip, ip, #57344	; 0xe000
    90d0:	e5bcf4b8 	ldr	pc, [ip, #1208]!
    90d4:	e28fc600 	add	ip, pc, #0	; 0x0
    90d8:	e28cca0e 	add	ip, ip, #57344	; 0xe000
    90dc:	e5bcf4b0 	ldr	pc, [ip, #1200]!
    90e0:	e28fc600 	add	ip, pc, #0	; 0x0
    90e4:	e28cca0e 	add	ip, ip, #57344	; 0xe000
    90e8:	e5bcf4a8 	ldr	pc, [ip, #1192]!
    90ec:	e28fc600 	add	ip, pc, #0	; 0x0
    90f0:	e28cca0e 	add	ip, ip, #57344	; 0xe000
    90f4:	e5bcf4a0 	ldr	pc, [ip, #1184]!
    90f8:	e28fc600 	add	ip, pc, #0	; 0x0
    90fc:	e28cca0e 	add	ip, ip, #57344	; 0xe000
    9100:	e5bcf498 	ldr	pc, [ip, #1176]!
    9104:	e28fc600 	add	ip, pc, #0	; 0x0
    9108:	e28cca0e 	add	ip, ip, #57344	; 0xe000
    910c:	e5bcf490 	ldr	pc, [ip, #1168]!
    9110:	e28fc600 	add	ip, pc, #0	; 0x0
    9114:	e28cca0e 	add	ip, ip, #57344	; 0xe000
    9118:	e5bcf488 	ldr	pc, [ip, #1160]!
    911c:	e28fc600 	add	ip, pc, #0	; 0x0
    9120:	e28cca0e 	add	ip, ip, #57344	; 0xe000
    9124:	e5bcf480 	ldr	pc, [ip, #1152]!
    9128:	e28fc600 	add	ip, pc, #0	; 0x0
    912c:	e28cca0e 	add	ip, ip, #57344	; 0xe000
    9130:	e5bcf478 	ldr	pc, [ip, #1144]!
    9134:	e28fc600 	add	ip, pc, #0	; 0x0
    9138:	e28cca0e 	add	ip, ip, #57344	; 0xe000
    913c:	e5bcf470 	ldr	pc, [ip, #1136]!
    9140:	e28fc600 	add	ip, pc, #0	; 0x0
    9144:	e28cca0e 	add	ip, ip, #57344	; 0xe000
    9148:	e5bcf468 	ldr	pc, [ip, #1128]!
    914c:	e28fc600 	add	ip, pc, #0	; 0x0
    9150:	e28cca0e 	add	ip, ip, #57344	; 0xe000
    9154:	e5bcf460 	ldr	pc, [ip, #1120]!
    9158:	e28fc600 	add	ip, pc, #0	; 0x0
    915c:	e28cca0e 	add	ip, ip, #57344	; 0xe000
    9160:	e5bcf458 	ldr	pc, [ip, #1112]!
    9164:	e28fc600 	add	ip, pc, #0	; 0x0
    9168:	e28cca0e 	add	ip, ip, #57344	; 0xe000
    916c:	e5bcf450 	ldr	pc, [ip, #1104]!
    9170:	e28fc600 	add	ip, pc, #0	; 0x0
    9174:	e28cca0e 	add	ip, ip, #57344	; 0xe000
    9178:	e5bcf448 	ldr	pc, [ip, #1096]!
    917c:	e28fc600 	add	ip, pc, #0	; 0x0
    9180:	e28cca0e 	add	ip, ip, #57344	; 0xe000
    9184:	e5bcf440 	ldr	pc, [ip, #1088]!
    9188:	e28fc600 	add	ip, pc, #0	; 0x0
    918c:	e28cca0e 	add	ip, ip, #57344	; 0xe000
    9190:	e5bcf438 	ldr	pc, [ip, #1080]!
    9194:	e28fc600 	add	ip, pc, #0	; 0x0
    9198:	e28cca0e 	add	ip, ip, #57344	; 0xe000
    919c:	e5bcf430 	ldr	pc, [ip, #1072]!
    91a0:	e28fc600 	add	ip, pc, #0	; 0x0
    91a4:	e28cca0e 	add	ip, ip, #57344	; 0xe000
    91a8:	e5bcf428 	ldr	pc, [ip, #1064]!
    91ac:	e28fc600 	add	ip, pc, #0	; 0x0
    91b0:	e28cca0e 	add	ip, ip, #57344	; 0xe000
    91b4:	e5bcf420 	ldr	pc, [ip, #1056]!
    91b8:	e28fc600 	add	ip, pc, #0	; 0x0
    91bc:	e28cca0e 	add	ip, ip, #57344	; 0xe000
    91c0:	e5bcf418 	ldr	pc, [ip, #1048]!
    91c4:	e28fc600 	add	ip, pc, #0	; 0x0
    91c8:	e28cca0e 	add	ip, ip, #57344	; 0xe000
    91cc:	e5bcf410 	ldr	pc, [ip, #1040]!
    91d0:	e28fc600 	add	ip, pc, #0	; 0x0
    91d4:	e28cca0e 	add	ip, ip, #57344	; 0xe000
    91d8:	e5bcf408 	ldr	pc, [ip, #1032]!
    91dc:	e28fc600 	add	ip, pc, #0	; 0x0
    91e0:	e28cca0e 	add	ip, ip, #57344	; 0xe000
    91e4:	e5bcf400 	ldr	pc, [ip, #1024]!
    91e8:	e28fc600 	add	ip, pc, #0	; 0x0
    91ec:	e28cca0e 	add	ip, ip, #57344	; 0xe000
    91f0:	e5bcf3f8 	ldr	pc, [ip, #1016]!
    91f4:	e28fc600 	add	ip, pc, #0	; 0x0
    91f8:	e28cca0e 	add	ip, ip, #57344	; 0xe000
    91fc:	e5bcf3f0 	ldr	pc, [ip, #1008]!
    9200:	e28fc600 	add	ip, pc, #0	; 0x0
    9204:	e28cca0e 	add	ip, ip, #57344	; 0xe000
    9208:	e5bcf3e8 	ldr	pc, [ip, #1000]!
    920c:	e28fc600 	add	ip, pc, #0	; 0x0
    9210:	e28cca0e 	add	ip, ip, #57344	; 0xe000
    9214:	e5bcf3e0 	ldr	pc, [ip, #992]!
    9218:	e28fc600 	add	ip, pc, #0	; 0x0
    921c:	e28cca0e 	add	ip, ip, #57344	; 0xe000
    9220:	e5bcf3d8 	ldr	pc, [ip, #984]!
    9224:	e28fc600 	add	ip, pc, #0	; 0x0
    9228:	e28cca0e 	add	ip, ip, #57344	; 0xe000
    922c:	e5bcf3d0 	ldr	pc, [ip, #976]!
    9230:	e28fc600 	add	ip, pc, #0	; 0x0
    9234:	e28cca0e 	add	ip, ip, #57344	; 0xe000
    9238:	e5bcf3c8 	ldr	pc, [ip, #968]!
    923c:	e28fc600 	add	ip, pc, #0	; 0x0
    9240:	e28cca0e 	add	ip, ip, #57344	; 0xe000
    9244:	e5bcf3c0 	ldr	pc, [ip, #960]!
    9248:	e28fc600 	add	ip, pc, #0	; 0x0
    924c:	e28cca0e 	add	ip, ip, #57344	; 0xe000
    9250:	e5bcf3b8 	ldr	pc, [ip, #952]!
    9254:	e28fc600 	add	ip, pc, #0	; 0x0
    9258:	e28cca0e 	add	ip, ip, #57344	; 0xe000
    925c:	e5bcf3b0 	ldr	pc, [ip, #944]!
    9260:	e28fc600 	add	ip, pc, #0	; 0x0
    9264:	e28cca0e 	add	ip, ip, #57344	; 0xe000
    9268:	e5bcf3a8 	ldr	pc, [ip, #936]!
    926c:	e28fc600 	add	ip, pc, #0	; 0x0
    9270:	e28cca0e 	add	ip, ip, #57344	; 0xe000
    9274:	e5bcf3a0 	ldr	pc, [ip, #928]!
    9278:	e28fc600 	add	ip, pc, #0	; 0x0
    927c:	e28cca0e 	add	ip, ip, #57344	; 0xe000
    9280:	e5bcf398 	ldr	pc, [ip, #920]!
    9284:	e28fc600 	add	ip, pc, #0	; 0x0
    9288:	e28cca0e 	add	ip, ip, #57344	; 0xe000
    928c:	e5bcf390 	ldr	pc, [ip, #912]!
Disassembly of section .text:

00009290 <_start>:
    9290:	e59fc024 	ldr	ip, [pc, #36]	; 92bc <_start+0x2c>
    9294:	e3a0b000 	mov	fp, #0	; 0x0
    9298:	e49d1004 	pop	{r1}		; (ldr r1, [sp], #4)
    929c:	e1a0200d 	mov	r2, sp
    92a0:	e52d2004 	push	{r2}		; (str r2, [sp, #-4]!)
    92a4:	e52d0004 	push	{r0}		; (str r0, [sp, #-4]!)
    92a8:	e59f0010 	ldr	r0, [pc, #16]	; 92c0 <_start+0x30>
    92ac:	e59f3010 	ldr	r3, [pc, #16]	; 92c4 <_start+0x34>
    92b0:	e52dc004 	push	{ip}		; (str ip, [sp, #-4]!)
    92b4:	ebffff50 	bl	8ffc <_init+0x94>
    92b8:	ebffff46 	bl	8fd8 <_init+0x70>
    92bc:	0000dd58 	.word	0x0000dd58
    92c0:	000094fc 	.word	0x000094fc
    92c4:	0000dd5c 	.word	0x0000dd5c

000092c8 <call_gmon_start>:
    92c8:	e59f3014 	ldr	r3, [pc, #20]	; 92e4 <call_gmon_start+0x1c>
    92cc:	e59f2014 	ldr	r2, [pc, #20]	; 92e8 <call_gmon_start+0x20>
    92d0:	e08f3003 	add	r3, pc, r3
    92d4:	e7931002 	ldr	r1, [r3, r2]
    92d8:	e3510000 	cmp	r1, #0	; 0x0
    92dc:	012fff1e 	bxeq	lr
    92e0:	eaffff4b 	b	9014 <_init+0xac>
    92e4:	0000e23c 	.word	0x0000e23c
    92e8:	0000010c 	.word	0x0000010c

000092ec <__do_global_dtors_aux>:
    92ec:	e59f2010 	ldr	r2, [pc, #16]	; 9304 <__do_global_dtors_aux+0x18>
    92f0:	e5d23000 	ldrb	r3, [r2]
    92f4:	e3530000 	cmp	r3, #0	; 0x0
    92f8:	02833001 	addeq	r3, r3, #1	; 0x1
    92fc:	05c23000 	strbeq	r3, [r2]
    9300:	e12fff1e 	bx	lr
    9304:	00017634 	.word	0x00017634

00009308 <frame_dummy>:
    9308:	e52de004 	push	{lr}		; (str lr, [sp, #-4]!)
    930c:	e59f0024 	ldr	r0, [pc, #36]	; 9338 <frame_dummy+0x30>
    9310:	e24dd004 	sub	sp, sp, #4	; 0x4
    9314:	e5903000 	ldr	r3, [r0]
    9318:	e3530000 	cmp	r3, #0	; 0x0
    931c:	0a000003 	beq	9330 <frame_dummy+0x28>
    9320:	e59f3014 	ldr	r3, [pc, #20]	; 933c <frame_dummy+0x34>
    9324:	e3530000 	cmp	r3, #0	; 0x0
    9328:	0a000000 	beq	9330 <frame_dummy+0x28>
    932c:	e12fff33 	blx	r3
    9330:	e28dd004 	add	sp, sp, #4	; 0x4
    9334:	e8bd8000 	pop	{pc}
    9338:	000173f0 	.word	0x000173f0
    933c:	00000000 	.word	0x00000000

00009340 <RemoteFocusd_SignalHandler>:
    9340:	e52de004 	push	{lr}		; (str lr, [sp, #-4]!)
    9344:	e3500002 	cmp	r0, #2	; 0x2
    9348:	1350000f 	cmpne	r0, #15	; 0xf
    934c:	e24dd004 	sub	sp, sp, #4	; 0x4
    9350:	0a000003 	beq	9364 <RemoteFocusd_SignalHandler+0x24>
    9354:	e350000d 	cmp	r0, #13	; 0xd
    9358:	0a000007 	beq	937c <RemoteFocusd_SignalHandler+0x3c>
    935c:	e28dd004 	add	sp, sp, #4	; 0x4
    9360:	e8bd8000 	pop	{pc}
    9364:	e59f0020 	ldr	r0, [pc, #32]	; 938c <RemoteFocusd_SignalHandler+0x4c>
    9368:	ebffffa1 	bl	91f4 <_init+0x28c>
    936c:	e59f301c 	ldr	r3, [pc, #28]	; 9390 <RemoteFocusd_SignalHandler+0x50>
    9370:	e3a02001 	mov	r2, #1	; 0x1
    9374:	e5832000 	str	r2, [r3]
    9378:	eafffff7 	b	935c <RemoteFocusd_SignalHandler+0x1c>
    937c:	e59f0010 	ldr	r0, [pc, #16]	; 9394 <RemoteFocusd_SignalHandler+0x54>
    9380:	e28dd004 	add	sp, sp, #4	; 0x4
    9384:	e49de004 	pop	{lr}		; (ldr lr, [sp], #4)
    9388:	eaffff99 	b	91f4 <_init+0x28c>
    938c:	0000ddd8 	.word	0x0000ddd8
    9390:	00017638 	.word	0x00017638
    9394:	0000de04 	.word	0x0000de04

00009398 <RemoteFocusd_Usage>:
    9398:	e59f0000 	ldr	r0, [pc, #0]	; 93a0 <RemoteFocusd_Usage+0x8>
    939c:	eaffff94 	b	91f4 <_init+0x28c>
    93a0:	0000de28 	.word	0x0000de28

000093a4 <RemoteFocusd_InitSignal>:
    93a4:	e92d4010 	push	{r4, lr}
    93a8:	e59f3050 	ldr	r3, [pc, #80]	; 9400 <RemoteFocusd_InitSignal+0x5c>
    93ac:	e24dd090 	sub	sp, sp, #144	; 0x90
    93b0:	e28d4004 	add	r4, sp, #4	; 0x4
    93b4:	e28d0008 	add	r0, sp, #8	; 0x8
    93b8:	e58d3004 	str	r3, [sp, #4]
    93bc:	ebfffef9 	bl	8fa8 <_init+0x40>
    93c0:	e3a03201 	mov	r3, #268435456	; 0x10000000
    93c4:	e1a01004 	mov	r1, r4
    93c8:	e3a02000 	mov	r2, #0	; 0x0
    93cc:	e3a0000f 	mov	r0, #15	; 0xf
    93d0:	e58d3088 	str	r3, [sp, #136]
    93d4:	ebffff7d 	bl	91d0 <_init+0x268>
    93d8:	e1a01004 	mov	r1, r4
    93dc:	e3a02000 	mov	r2, #0	; 0x0
    93e0:	e3a00002 	mov	r0, #2	; 0x2
    93e4:	ebffff79 	bl	91d0 <_init+0x268>
    93e8:	e1a01004 	mov	r1, r4
    93ec:	e3a02000 	mov	r2, #0	; 0x0
    93f0:	e3a0000d 	mov	r0, #13	; 0xd
    93f4:	ebffff75 	bl	91d0 <_init+0x268>
    93f8:	e28dd090 	add	sp, sp, #144	; 0x90
    93fc:	e8bd8010 	pop	{r4, pc}
    9400:	00009340 	.word	0x00009340

00009404 <RemoteFocusd_ShowVersion>:
    9404:	e52de004 	push	{lr}		; (str lr, [sp, #-4]!)
    9408:	e59f1024 	ldr	r1, [pc, #36]	; 9434 <RemoteFocusd_ShowVersion+0x30>
    940c:	e24dd004 	sub	sp, sp, #4	; 0x4
    9410:	e59f0020 	ldr	r0, [pc, #32]	; 9438 <RemoteFocusd_ShowVersion+0x34>
    9414:	ebffff52 	bl	9164 <_init+0x1fc>
    9418:	e59f101c 	ldr	r1, [pc, #28]	; 943c <RemoteFocusd_ShowVersion+0x38>
    941c:	e59f001c 	ldr	r0, [pc, #28]	; 9440 <RemoteFocusd_ShowVersion+0x3c>
    9420:	ebffff4f 	bl	9164 <_init+0x1fc>
    9424:	e59f0018 	ldr	r0, [pc, #24]	; 9444 <RemoteFocusd_ShowVersion+0x40>
    9428:	e28dd004 	add	sp, sp, #4	; 0x4
    942c:	e49de004 	pop	{lr}		; (ldr lr, [sp], #4)
    9430:	eaffff6f 	b	91f4 <_init+0x28c>
    9434:	0000dee0 	.word	0x0000dee0
    9438:	0000dec4 	.word	0x0000dec4
    943c:	0000df04 	.word	0x0000df04
    9440:	0000dee8 	.word	0x0000dee8
    9444:	0000df10 	.word	0x0000df10

00009448 <RemoteFocusd_Config>:
    9448:	e92d4070 	push	{r4, r5, r6, lr}
    944c:	e1a05001 	mov	r5, r1
    9450:	e1a04002 	mov	r4, r2
    9454:	e3a06000 	mov	r6, #0	; 0x0
    9458:	e1a00005 	mov	r0, r5
    945c:	e1a01004 	mov	r1, r4
    9460:	e59f2074 	ldr	r2, [pc, #116]	; 94dc <RemoteFocusd_Config+0x94>
    9464:	ebffff35 	bl	9140 <_init+0x1d8>
    9468:	e3700001 	cmn	r0, #1	; 0x1
    946c:	0a000012 	beq	94bc <RemoteFocusd_Config+0x74>
    9470:	e3500064 	cmp	r0, #100	; 0x64
    9474:	e3a06001 	mov	r6, #1	; 0x1
    9478:	0afffff6 	beq	9458 <RemoteFocusd_Config+0x10>
    947c:	e3500076 	cmp	r0, #118	; 0x76
    9480:	0a000003 	beq	9494 <RemoteFocusd_Config+0x4c>
    9484:	e59f0054 	ldr	r0, [pc, #84]	; 94e0 <RemoteFocusd_Config+0x98>
    9488:	ebffff59 	bl	91f4 <_init+0x28c>
    948c:	e3a00000 	mov	r0, #0	; 0x0
    9490:	ebffff6c 	bl	9248 <_init+0x2e0>
    9494:	e59f1048 	ldr	r1, [pc, #72]	; 94e4 <RemoteFocusd_Config+0x9c>
    9498:	e59f0048 	ldr	r0, [pc, #72]	; 94e8 <RemoteFocusd_Config+0xa0>
    949c:	ebffff30 	bl	9164 <_init+0x1fc>
    94a0:	e59f1044 	ldr	r1, [pc, #68]	; 94ec <RemoteFocusd_Config+0xa4>
    94a4:	e59f0044 	ldr	r0, [pc, #68]	; 94f0 <RemoteFocusd_Config+0xa8>
    94a8:	ebffff2d 	bl	9164 <_init+0x1fc>
    94ac:	e59f0040 	ldr	r0, [pc, #64]	; 94f4 <RemoteFocusd_Config+0xac>
    94b0:	ebffff4f 	bl	91f4 <_init+0x28c>
    94b4:	e3a00000 	mov	r0, #0	; 0x0
    94b8:	ebffff62 	bl	9248 <_init+0x2e0>
    94bc:	e3560000 	cmp	r6, #0	; 0x0
    94c0:	08bd8070 	popeq	{r4, r5, r6, pc}
    94c4:	e59f002c 	ldr	r0, [pc, #44]	; 94f8 <RemoteFocusd_Config+0xb0>
    94c8:	ebffff49 	bl	91f4 <_init+0x28c>
    94cc:	e3a00000 	mov	r0, #0	; 0x0
    94d0:	e1a01000 	mov	r1, r0
    94d4:	e8bd4070 	pop	{r4, r5, r6, lr}
    94d8:	eafffeb5 	b	8fb4 <_init+0x4c>
    94dc:	0000df4c 	.word	0x0000df4c
    94e0:	0000de28 	.word	0x0000de28
    94e4:	0000dee0 	.word	0x0000dee0
    94e8:	0000dec4 	.word	0x0000dec4
    94ec:	0000df04 	.word	0x0000df04
    94f0:	0000dee8 	.word	0x0000dee8
    94f4:	0000df10 	.word	0x0000df10
    94f8:	0000df50 	.word	0x0000df50

000094fc <main>:
    94fc:	e92d4070 	push	{r4, r5, r6, lr}
    9500:	e24ddf72 	sub	sp, sp, #456	; 0x1c8
    9504:	e28d6004 	add	r6, sp, #4	; 0x4
    9508:	e1a04000 	mov	r4, r0
    950c:	e1a05001 	mov	r5, r1
    9510:	e3a02f4e 	mov	r2, #312	; 0x138
    9514:	e3a01000 	mov	r1, #0	; 0x0
    9518:	e1a00006 	mov	r0, r6
    951c:	ebfffeda 	bl	908c <_init+0x124>
    9520:	e1a01004 	mov	r1, r4
    9524:	e1a02005 	mov	r2, r5
    9528:	e1a00006 	mov	r0, r6
    952c:	ebffffc5 	bl	9448 <RemoteFocusd_Config>
    9530:	e59f308c 	ldr	r3, [pc, #140]	; 95c4 <main+0xc8>
    9534:	e28d4f4f 	add	r4, sp, #316	; 0x13c
    9538:	e28d0d05 	add	r0, sp, #320	; 0x140
    953c:	e58d313c 	str	r3, [sp, #316]
    9540:	ebfffe98 	bl	8fa8 <_init+0x40>
    9544:	e3a03201 	mov	r3, #268435456	; 0x10000000
    9548:	e1a01004 	mov	r1, r4
    954c:	e3a02000 	mov	r2, #0	; 0x0
    9550:	e3a0000f 	mov	r0, #15	; 0xf
    9554:	e58d31c0 	str	r3, [sp, #448]
    9558:	ebffff1c 	bl	91d0 <_init+0x268>
    955c:	e1a01004 	mov	r1, r4
    9560:	e3a02000 	mov	r2, #0	; 0x0
    9564:	e3a00002 	mov	r0, #2	; 0x2
    9568:	ebffff18 	bl	91d0 <_init+0x268>
    956c:	e1a01004 	mov	r1, r4
    9570:	e3a02000 	mov	r2, #0	; 0x0
    9574:	e3a0000d 	mov	r0, #13	; 0xd
    9578:	ebffff14 	bl	91d0 <_init+0x268>
    957c:	e1a00006 	mov	r0, r6
    9580:	eb0001ee 	bl	9d40 <RemoteFocusd_Init>
    9584:	e3500000 	cmp	r0, #0	; 0x0
    9588:	0a00000a 	beq	95b8 <main+0xbc>
    958c:	e59f0034 	ldr	r0, [pc, #52]	; 95c8 <main+0xcc>
    9590:	ebffff17 	bl	91f4 <_init+0x28c>
    9594:	e1a00006 	mov	r0, r6
    9598:	eb000010 	bl	95e0 <RemoteFocusd_Release>
    959c:	e3500000 	cmp	r0, #0	; 0x0
    95a0:	0a000002 	beq	95b0 <main+0xb4>
    95a4:	e59f0020 	ldr	r0, [pc, #32]	; 95cc <main+0xd0>
    95a8:	ebffff11 	bl	91f4 <_init+0x28c>
    95ac:	e3a00001 	mov	r0, #1	; 0x1
    95b0:	e28ddf72 	add	sp, sp, #456	; 0x1c8
    95b4:	e8bd8070 	pop	{r4, r5, r6, pc}
    95b8:	e1a00006 	mov	r0, r6
    95bc:	eb0007fe 	bl	b5bc <RemoteFocusd_InfoProcess>
    95c0:	eafffff3 	b	9594 <main+0x98>
    95c4:	00009340 	.word	0x00009340
    95c8:	0000df7c 	.word	0x0000df7c
    95cc:	0000dfa8 	.word	0x0000dfa8

000095d0 <RemoteFocusd_UpdateMaxFd>:
    95d0:	e590300c 	ldr	r3, [r0, #12]
    95d4:	e1530001 	cmp	r3, r1
    95d8:	b580100c 	strlt	r1, [r0, #12]
    95dc:	e12fff1e 	bx	lr

000095e0 <RemoteFocusd_Release>:
    95e0:	e92d4010 	push	{r4, lr}
    95e4:	e1a04000 	mov	r4, r0
    95e8:	e59f00a4 	ldr	r0, [pc, #164]	; 9694 <RemoteFocusd_Release+0xb4>
    95ec:	ebfffedc 	bl	9164 <_init+0x1fc>
    95f0:	e5940108 	ldr	r0, [r4, #264]
    95f4:	ebfffeb3 	bl	90c8 <_init+0x160>
    95f8:	e3500000 	cmp	r0, #0	; 0x0
    95fc:	aa000003 	bge	9610 <RemoteFocusd_Release+0x30>
    9600:	e59f0090 	ldr	r0, [pc, #144]	; 9698 <RemoteFocusd_Release+0xb8>
    9604:	ebfffefa 	bl	91f4 <_init+0x28c>
    9608:	e3e00000 	mvn	r0, #0	; 0x0
    960c:	e8bd8010 	pop	{r4, pc}
    9610:	e5943134 	ldr	r3, [r4, #308]
    9614:	e3530000 	cmp	r3, #0	; 0x0
    9618:	1a00000a 	bne	9648 <RemoteFocusd_Release+0x68>
    961c:	e5943130 	ldr	r3, [r4, #304]
    9620:	e3530000 	cmp	r3, #0	; 0x0
    9624:	0a00000c 	beq	965c <RemoteFocusd_Release+0x7c>
    9628:	e28400d4 	add	r0, r4, #212	; 0xd4
    962c:	ebfffeba 	bl	911c <_init+0x1b4>
    9630:	e3500000 	cmp	r0, #0	; 0x0
    9634:	0a000008 	beq	965c <RemoteFocusd_Release+0x7c>
    9638:	e59f005c 	ldr	r0, [pc, #92]	; 969c <RemoteFocusd_Release+0xbc>
    963c:	ebfffeec 	bl	91f4 <_init+0x28c>
    9640:	e3e00000 	mvn	r0, #0	; 0x0
    9644:	e8bd8010 	pop	{r4, pc}
    9648:	e28400a0 	add	r0, r4, #160	; 0xa0
    964c:	ebfffeb2 	bl	911c <_init+0x1b4>
    9650:	e3500000 	cmp	r0, #0	; 0x0
    9654:	1afffff7 	bne	9638 <RemoteFocusd_Release+0x58>
    9658:	eaffffef 	b	961c <RemoteFocusd_Release+0x3c>
    965c:	e5940004 	ldr	r0, [r4, #4]
    9660:	ebfffee0 	bl	91e8 <_init+0x280>
    9664:	e2840e11 	add	r0, r4, #272	; 0x110
    9668:	ebfffe8d 	bl	90a4 <_init+0x13c>
    966c:	e5940008 	ldr	r0, [r4, #8]
    9670:	ebfffe5b 	bl	8fe4 <_init+0x7c>
    9674:	e5940014 	ldr	r0, [r4, #20]
    9678:	ebfffecb 	bl	91ac <_init+0x244>
    967c:	e59f001c 	ldr	r0, [pc, #28]	; 96a0 <RemoteFocusd_Release+0xc0>
    9680:	ebfffeab 	bl	9134 <_init+0x1cc>
    9684:	e59f0018 	ldr	r0, [pc, #24]	; 96a4 <RemoteFocusd_Release+0xc4>
    9688:	ebfffed9 	bl	91f4 <_init+0x28c>
    968c:	e3a00000 	mov	r0, #0	; 0x0
    9690:	e8bd8010 	pop	{r4, pc}
    9694:	0000dfd8 	.word	0x0000dfd8
    9698:	0000e000 	.word	0x0000e000
    969c:	0000e020 	.word	0x0000e020
    96a0:	0000e04c 	.word	0x0000e04c
    96a4:	0000e068 	.word	0x0000e068

000096a8 <RemoteFocusd_InitZoomMotorThread>:
    96a8:	e92d4010 	push	{r4, lr}
    96ac:	e3a03078 	mov	r3, #120	; 0x78
    96b0:	e24dd018 	sub	sp, sp, #24	; 0x18
    96b4:	e59f2068 	ldr	r2, [pc, #104]	; 9724 <RemoteFocusd_InitZoomMotorThread+0x7c>
    96b8:	e3a0c000 	mov	ip, #0	; 0x0
    96bc:	e1a04000 	mov	r4, r0
    96c0:	e58d3008 	str	r3, [sp, #8]
    96c4:	e28000d4 	add	r0, r0, #212	; 0xd4
    96c8:	e2433076 	sub	r3, r3, #118	; 0x76
    96cc:	e1a0100d 	mov	r1, sp
    96d0:	e58dc000 	str	ip, [sp]
    96d4:	e58d2014 	str	r2, [sp, #20]
    96d8:	e58d300c 	str	r3, [sp, #12]
    96dc:	e58dc010 	str	ip, [sp, #16]
    96e0:	e58d4004 	str	r4, [sp, #4]
    96e4:	ebfffe59 	bl	9050 <_init+0xe8>
    96e8:	e3500000 	cmp	r0, #0	; 0x0
    96ec:	0a000004 	beq	9704 <RemoteFocusd_InitZoomMotorThread+0x5c>
    96f0:	e59f0030 	ldr	r0, [pc, #48]	; 9728 <RemoteFocusd_InitZoomMotorThread+0x80>
    96f4:	ebfffebe 	bl	91f4 <_init+0x28c>
    96f8:	e3e00000 	mvn	r0, #0	; 0x0
    96fc:	e28dd018 	add	sp, sp, #24	; 0x18
    9700:	e8bd8010 	pop	{r4, pc}
    9704:	e59400d4 	ldr	r0, [r4, #212]
    9708:	ebfffe2f 	bl	8fcc <_init+0x64>
    970c:	e3500000 	cmp	r0, #0	; 0x0
    9710:	0afffff9 	beq	96fc <RemoteFocusd_InitZoomMotorThread+0x54>
    9714:	e59f0010 	ldr	r0, [pc, #16]	; 972c <RemoteFocusd_InitZoomMotorThread+0x84>
    9718:	ebfffeb5 	bl	91f4 <_init+0x28c>
    971c:	e3e00000 	mvn	r0, #0	; 0x0
    9720:	eafffff5 	b	96fc <RemoteFocusd_InitZoomMotorThread+0x54>
    9724:	0000ccfc 	.word	0x0000ccfc
    9728:	0000e06c 	.word	0x0000e06c
    972c:	0000e098 	.word	0x0000e098

00009730 <RemoteFocusd_InitFocusMotorThread>:
    9730:	e92d4010 	push	{r4, lr}
    9734:	e3a03078 	mov	r3, #120	; 0x78
    9738:	e24dd018 	sub	sp, sp, #24	; 0x18
    973c:	e59f2068 	ldr	r2, [pc, #104]	; 97ac <RemoteFocusd_InitFocusMotorThread+0x7c>
    9740:	e3a0c000 	mov	ip, #0	; 0x0
    9744:	e1a04000 	mov	r4, r0
    9748:	e58d3008 	str	r3, [sp, #8]
    974c:	e28000a0 	add	r0, r0, #160	; 0xa0
    9750:	e2433076 	sub	r3, r3, #118	; 0x76
    9754:	e1a0100d 	mov	r1, sp
    9758:	e58dc000 	str	ip, [sp]
    975c:	e58d2014 	str	r2, [sp, #20]
    9760:	e58d300c 	str	r3, [sp, #12]
    9764:	e58dc010 	str	ip, [sp, #16]
    9768:	e58d4004 	str	r4, [sp, #4]
    976c:	ebfffe37 	bl	9050 <_init+0xe8>
    9770:	e3500000 	cmp	r0, #0	; 0x0
    9774:	0a000004 	beq	978c <RemoteFocusd_InitFocusMotorThread+0x5c>
    9778:	e59f0030 	ldr	r0, [pc, #48]	; 97b0 <RemoteFocusd_InitFocusMotorThread+0x80>
    977c:	ebfffe9c 	bl	91f4 <_init+0x28c>
    9780:	e3e00000 	mvn	r0, #0	; 0x0
    9784:	e28dd018 	add	sp, sp, #24	; 0x18
    9788:	e8bd8010 	pop	{r4, pc}
    978c:	e59400a0 	ldr	r0, [r4, #160]
    9790:	ebfffe0d 	bl	8fcc <_init+0x64>
    9794:	e3500000 	cmp	r0, #0	; 0x0
    9798:	0afffff9 	beq	9784 <RemoteFocusd_InitFocusMotorThread+0x54>
    979c:	e59f0010 	ldr	r0, [pc, #16]	; 97b4 <RemoteFocusd_InitFocusMotorThread+0x84>
    97a0:	ebfffe93 	bl	91f4 <_init+0x28c>
    97a4:	e3e00000 	mvn	r0, #0	; 0x0
    97a8:	eafffff5 	b	9784 <RemoteFocusd_InitFocusMotorThread+0x54>
    97ac:	0000d358 	.word	0x0000d358
    97b0:	0000e06c 	.word	0x0000e06c
    97b4:	0000e098 	.word	0x0000e098

000097b8 <RemoteFocusd_InitXMLParser>:
    97b8:	e92d4010 	push	{r4, lr}
    97bc:	e1a04000 	mov	r4, r0
    97c0:	e3a00000 	mov	r0, #0	; 0x0
    97c4:	ebfffe09 	bl	8ff0 <_init+0x88>
    97c8:	e3500000 	cmp	r0, #0	; 0x0
    97cc:	1a000003 	bne	97e0 <RemoteFocusd_InitXMLParser+0x28>
    97d0:	e59f0014 	ldr	r0, [pc, #20]	; 97ec <RemoteFocusd_InitXMLParser+0x34>
    97d4:	ebfffe86 	bl	91f4 <_init+0x28c>
    97d8:	e3e00000 	mvn	r0, #0	; 0x0
    97dc:	e8bd8010 	pop	{r4, pc}
    97e0:	e5840004 	str	r0, [r4, #4]
    97e4:	e3a00000 	mov	r0, #0	; 0x0
    97e8:	e8bd8010 	pop	{r4, pc}
    97ec:	0000e0c0 	.word	0x0000e0c0

000097f0 <RemoteFocusd_InitShareMem>:
    97f0:	e92d4030 	push	{r4, r5, lr}
    97f4:	e3a01000 	mov	r1, #0	; 0x0
    97f8:	e24dd004 	sub	sp, sp, #4	; 0x4
    97fc:	e1a05000 	mov	r5, r0
    9800:	e59f007c 	ldr	r0, [pc, #124]	; 9884 <RemoteFocusd_InitShareMem+0x94>
    9804:	ebfffe5c 	bl	917c <_init+0x214>
    9808:	e3a01020 	mov	r1, #32	; 0x20
    980c:	e59f2074 	ldr	r2, [pc, #116]	; 9888 <RemoteFocusd_InitShareMem+0x98>
    9810:	e1a04000 	mov	r4, r0
    9814:	ebfffe9a 	bl	9284 <_init+0x31c>
    9818:	e3500000 	cmp	r0, #0	; 0x0
    981c:	e585010c 	str	r0, [r5, #268]
    9820:	aa00000b 	bge	9854 <RemoteFocusd_InitShareMem+0x64>
    9824:	ebfffe8a 	bl	9254 <_init+0x2ec>
    9828:	e5900000 	ldr	r0, [r0]
    982c:	ebfffde3 	bl	8fc0 <_init+0x58>
    9830:	e1a01004 	mov	r1, r4
    9834:	e1a02000 	mov	r2, r0
    9838:	e59f004c 	ldr	r0, [pc, #76]	; 988c <RemoteFocusd_InitShareMem+0x9c>
    983c:	ebfffe48 	bl	9164 <_init+0x1fc>
    9840:	e59f0048 	ldr	r0, [pc, #72]	; 9890 <RemoteFocusd_InitShareMem+0xa0>
    9844:	ebfffe6a 	bl	91f4 <_init+0x28c>
    9848:	e3e00000 	mvn	r0, #0	; 0x0
    984c:	e28dd004 	add	sp, sp, #4	; 0x4
    9850:	e8bd8030 	pop	{r4, r5, pc}
    9854:	e3a01000 	mov	r1, #0	; 0x0
    9858:	e1a02001 	mov	r2, r1
    985c:	ebfffe04 	bl	9074 <_init+0x10c>
    9860:	e3700001 	cmn	r0, #1	; 0x1
    9864:	e1a04000 	mov	r4, r0
    9868:	e5850108 	str	r0, [r5, #264]
    986c:	13a00000 	movne	r0, #0	; 0x0
    9870:	1afffff5 	bne	984c <RemoteFocusd_InitShareMem+0x5c>
    9874:	e59f0018 	ldr	r0, [pc, #24]	; 9894 <RemoteFocusd_InitShareMem+0xa4>
    9878:	ebfffe5d 	bl	91f4 <_init+0x28c>
    987c:	e1a00004 	mov	r0, r4
    9880:	eafffff1 	b	984c <RemoteFocusd_InitShareMem+0x5c>
    9884:	0000e0ec 	.word	0x0000e0ec
    9888:	000003b6 	.word	0x000003b6
    988c:	0000e104 	.word	0x0000e104
    9890:	0000e120 	.word	0x0000e120
    9894:	0000e140 	.word	0x0000e140

00009898 <RemoteFocusd_InitFIFO>:
    9898:	e92d4070 	push	{r4, r5, r6, lr}
    989c:	e3a01000 	mov	r1, #0	; 0x0
    98a0:	e1a04000 	mov	r4, r0
    98a4:	e59f009c 	ldr	r0, [pc, #156]	; 9948 <RemoteFocusd_InitFIFO+0xb0>
    98a8:	ebfffe12 	bl	90f8 <_init+0x190>
    98ac:	e3500000 	cmp	r0, #0	; 0x0
    98b0:	0a000008 	beq	98d8 <RemoteFocusd_InitFIFO+0x40>
    98b4:	e59f008c 	ldr	r0, [pc, #140]	; 9948 <RemoteFocusd_InitFIFO+0xb0>
    98b8:	e59f108c 	ldr	r1, [pc, #140]	; 994c <RemoteFocusd_InitFIFO+0xb4>
    98bc:	ebfffe2b 	bl	9170 <_init+0x208>
    98c0:	e2505000 	subs	r5, r0, #0	; 0x0
    98c4:	0a000006 	beq	98e4 <RemoteFocusd_InitFIFO+0x4c>
    98c8:	e59f0080 	ldr	r0, [pc, #128]	; 9950 <RemoteFocusd_InitFIFO+0xb8>
    98cc:	ebfffe48 	bl	91f4 <_init+0x28c>
    98d0:	e3e00000 	mvn	r0, #0	; 0x0
    98d4:	e8bd8070 	pop	{r4, r5, r6, pc}
    98d8:	e59f0068 	ldr	r0, [pc, #104]	; 9948 <RemoteFocusd_InitFIFO+0xb0>
    98dc:	ebfffe35 	bl	91b8 <_init+0x250>
    98e0:	eafffff3 	b	98b4 <RemoteFocusd_InitFIFO+0x1c>
    98e4:	e59f005c 	ldr	r0, [pc, #92]	; 9948 <RemoteFocusd_InitFIFO+0xb0>
    98e8:	e3a01002 	mov	r1, #2	; 0x2
    98ec:	ebfffda7 	bl	8f90 <_init+0x28>
    98f0:	e3700001 	cmn	r0, #1	; 0x1
    98f4:	e1a06000 	mov	r6, r0
    98f8:	1a000003 	bne	990c <RemoteFocusd_InitFIFO+0x74>
    98fc:	e59f0050 	ldr	r0, [pc, #80]	; 9954 <RemoteFocusd_InitFIFO+0xbc>
    9900:	ebfffe3b 	bl	91f4 <_init+0x28c>
    9904:	e1a00006 	mov	r0, r6
    9908:	e8bd8070 	pop	{r4, r5, r6, pc}
    990c:	e1a022a0 	lsr	r2, r0, #5
    9910:	e1a02102 	lsl	r2, r2, #2
    9914:	e0822004 	add	r2, r2, r4
    9918:	e5921018 	ldr	r1, [r2, #24]
    991c:	e200001f 	and	r0, r0, #31	; 0x1f
    9920:	e3a03001 	mov	r3, #1	; 0x1
    9924:	e1811013 	orr	r1, r1, r3, lsl r0
    9928:	e594c00c 	ldr	ip, [r4, #12]
    992c:	e5821018 	str	r1, [r2, #24]
    9930:	e156000c 	cmp	r6, ip
    9934:	d1a00005 	movle	r0, r5
    9938:	c1a00005 	movgt	r0, r5
    993c:	e5846014 	str	r6, [r4, #20]
    9940:	c584600c 	strgt	r6, [r4, #12]
    9944:	e8bd8070 	pop	{r4, r5, r6, pc}
    9948:	0000e160 	.word	0x0000e160
    994c:	000001ff 	.word	0x000001ff
    9950:	0000e178 	.word	0x0000e178
    9954:	0000e1a0 	.word	0x0000e1a0

00009958 <RemoteFocusd_InitFdCgi>:
    9958:	e92d4030 	push	{r4, r5, lr}
    995c:	e59f106c 	ldr	r1, [pc, #108]	; 99d0 <RemoteFocusd_InitFdCgi+0x78>
    9960:	e24dd004 	sub	sp, sp, #4	; 0x4
    9964:	e1a04000 	mov	r4, r0
    9968:	e2800008 	add	r0, r0, #8	; 0x8
    996c:	ebfffda5 	bl	9008 <_init+0xa0>
    9970:	e2505000 	subs	r5, r0, #0	; 0x0
    9974:	0a000004 	beq	998c <RemoteFocusd_InitFdCgi+0x34>
    9978:	e59f0054 	ldr	r0, [pc, #84]	; 99d4 <RemoteFocusd_InitFdCgi+0x7c>
    997c:	ebfffe1c 	bl	91f4 <_init+0x28c>
    9980:	e3e00000 	mvn	r0, #0	; 0x0
    9984:	e28dd004 	add	sp, sp, #4	; 0x4
    9988:	e8bd8030 	pop	{r4, r5, pc}
    998c:	e5940008 	ldr	r0, [r4, #8]
    9990:	ebfffe26 	bl	9230 <_init+0x2c8>
    9994:	e1a022a0 	lsr	r2, r0, #5
    9998:	e1a02102 	lsl	r2, r2, #2
    999c:	e0822004 	add	r2, r2, r4
    99a0:	e5921018 	ldr	r1, [r2, #24]
    99a4:	e1a0e000 	mov	lr, r0
    99a8:	e3a03001 	mov	r3, #1	; 0x1
    99ac:	e200001f 	and	r0, r0, #31	; 0x1f
    99b0:	e1811013 	orr	r1, r1, r3, lsl r0
    99b4:	e594c00c 	ldr	ip, [r4, #12]
    99b8:	e1a00005 	mov	r0, r5
    99bc:	e15e000c 	cmp	lr, ip
    99c0:	e5821018 	str	r1, [r2, #24]
    99c4:	e584e010 	str	lr, [r4, #16]
    99c8:	c584e00c 	strgt	lr, [r4, #12]
    99cc:	eaffffec 	b	9984 <RemoteFocusd_InitFdCgi+0x2c>
    99d0:	0000e1c8 	.word	0x0000e1c8
    99d4:	0000e1dc 	.word	0x0000e1dc

000099d8 <RemoteFocusd_GenPidFile>:
    99d8:	e92d4030 	push	{r4, r5, lr}
    99dc:	e59f0048 	ldr	r0, [pc, #72]	; 9a2c <RemoteFocusd_GenPidFile+0x54>
    99e0:	e24dd00c 	sub	sp, sp, #12	; 0xc
    99e4:	e59f1044 	ldr	r1, [pc, #68]	; 9a30 <RemoteFocusd_GenPidFile+0x58>
    99e8:	ebfffd9e 	bl	9068 <_init+0x100>
    99ec:	e2505000 	subs	r5, r0, #0	; 0x0
    99f0:	0a00000b 	beq	9a24 <RemoteFocusd_GenPidFile+0x4c>
    99f4:	ebfffe01 	bl	9200 <_init+0x298>
    99f8:	e59f2034 	ldr	r2, [pc, #52]	; 9a34 <RemoteFocusd_GenPidFile+0x5c>
    99fc:	e1a03000 	mov	r3, r0
    9a00:	e3a01008 	mov	r1, #8	; 0x8
    9a04:	e1a0000d 	mov	r0, sp
    9a08:	ebfffdff 	bl	920c <_init+0x2a4>
    9a0c:	e1a0000d 	mov	r0, sp
    9a10:	e1a01005 	mov	r1, r5
    9a14:	ebfffe17 	bl	9278 <_init+0x310>
    9a18:	e1a00005 	mov	r0, r5
    9a1c:	e1a0400d 	mov	r4, sp
    9a20:	ebfffd84 	bl	9038 <_init+0xd0>
    9a24:	e28dd00c 	add	sp, sp, #12	; 0xc
    9a28:	e8bd8030 	pop	{r4, r5, pc}
    9a2c:	0000e04c 	.word	0x0000e04c
    9a30:	0000e200 	.word	0x0000e200
    9a34:	0000e204 	.word	0x0000e204

00009a38 <RemoteFocusd_LoadConfigFile>:
    9a38:	e92d40f0 	push	{r4, r5, r6, r7, lr}
    9a3c:	e59f1108 	ldr	r1, [pc, #264]	; 9b4c <RemoteFocusd_LoadConfigFile+0x114>
    9a40:	e24dd084 	sub	sp, sp, #132	; 0x84
    9a44:	e1a04000 	mov	r4, r0
    9a48:	e59f0100 	ldr	r0, [pc, #256]	; 9b50 <RemoteFocusd_LoadConfigFile+0x118>
    9a4c:	ebfffd85 	bl	9068 <_init+0x100>
    9a50:	e2507000 	subs	r7, r0, #0	; 0x0
    9a54:	1a000004 	bne	9a6c <RemoteFocusd_LoadConfigFile+0x34>
    9a58:	e59f00f4 	ldr	r0, [pc, #244]	; 9b54 <RemoteFocusd_LoadConfigFile+0x11c>
    9a5c:	ebfffde4 	bl	91f4 <_init+0x28c>
    9a60:	e3e00000 	mvn	r0, #0	; 0x0
    9a64:	e28dd084 	add	sp, sp, #132	; 0x84
    9a68:	e8bd80f0 	pop	{r4, r5, r6, r7, pc}
    9a6c:	e1a0500d 	mov	r5, sp
    9a70:	e59f10e0 	ldr	r1, [pc, #224]	; 9b58 <RemoteFocusd_LoadConfigFile+0x120>
    9a74:	e1a0200d 	mov	r2, sp
    9a78:	e1a00007 	mov	r0, r7
    9a7c:	ebfffdfa 	bl	926c <_init+0x304>
    9a80:	e3700001 	cmn	r0, #1	; 0x1
    9a84:	e3a0103d 	mov	r1, #61	; 0x3d
    9a88:	e1a0000d 	mov	r0, sp
    9a8c:	0a00001d 	beq	9b08 <RemoteFocusd_LoadConfigFile+0xd0>
    9a90:	ebfffd6b 	bl	9044 <_init+0xdc>
    9a94:	e3a03000 	mov	r3, #0	; 0x0
    9a98:	e4c03001 	strb	r3, [r0], #1
    9a9c:	e5942130 	ldr	r2, [r4, #304]
    9aa0:	e1a06000 	mov	r6, r0
    9aa4:	e1520003 	cmp	r2, r3
    9aa8:	1a00001a 	bne	9b18 <RemoteFocusd_LoadConfigFile+0xe0>
    9aac:	e5943134 	ldr	r3, [r4, #308]
    9ab0:	e3530000 	cmp	r3, #0	; 0x0
    9ab4:	0affffed 	beq	9a70 <RemoteFocusd_LoadConfigFile+0x38>
    9ab8:	e1a0000d 	mov	r0, sp
    9abc:	e59f1098 	ldr	r1, [pc, #152]	; 9b5c <RemoteFocusd_LoadConfigFile+0x124>
    9ac0:	e3a0200b 	mov	r2, #11	; 0xb
    9ac4:	ebfffdd3 	bl	9218 <_init+0x2b0>
    9ac8:	e3500000 	cmp	r0, #0	; 0x0
    9acc:	1affffe7 	bne	9a70 <RemoteFocusd_LoadConfigFile+0x38>
    9ad0:	e1a01000 	mov	r1, r0
    9ad4:	e1a03001 	mov	r3, r1
    9ad8:	e3a0200a 	mov	r2, #10	; 0xa
    9adc:	e1a00006 	mov	r0, r6
    9ae0:	ebfffd66 	bl	9080 <_init+0x118>
    9ae4:	e59f106c 	ldr	r1, [pc, #108]	; 9b58 <RemoteFocusd_LoadConfigFile+0x120>
    9ae8:	e58400a8 	str	r0, [r4, #168]
    9aec:	e1a0200d 	mov	r2, sp
    9af0:	e1a00007 	mov	r0, r7
    9af4:	ebfffddc 	bl	926c <_init+0x304>
    9af8:	e3700001 	cmn	r0, #1	; 0x1
    9afc:	e3a0103d 	mov	r1, #61	; 0x3d
    9b00:	e1a0000d 	mov	r0, sp
    9b04:	1affffe1 	bne	9a90 <RemoteFocusd_LoadConfigFile+0x58>
    9b08:	e1a00007 	mov	r0, r7
    9b0c:	ebfffd49 	bl	9038 <_init+0xd0>
    9b10:	e3a00000 	mov	r0, #0	; 0x0
    9b14:	eaffffd2 	b	9a64 <RemoteFocusd_LoadConfigFile+0x2c>
    9b18:	e1a0000d 	mov	r0, sp
    9b1c:	e59f103c 	ldr	r1, [pc, #60]	; 9b60 <RemoteFocusd_LoadConfigFile+0x128>
    9b20:	e3a0200a 	mov	r2, #10	; 0xa
    9b24:	ebfffdbb 	bl	9218 <_init+0x2b0>
    9b28:	e3500000 	cmp	r0, #0	; 0x0
    9b2c:	1affffde 	bne	9aac <RemoteFocusd_LoadConfigFile+0x74>
    9b30:	e1a01000 	mov	r1, r0
    9b34:	e3a0200a 	mov	r2, #10	; 0xa
    9b38:	e1a00006 	mov	r0, r6
    9b3c:	e1a03001 	mov	r3, r1
    9b40:	ebfffd4e 	bl	9080 <_init+0x118>
    9b44:	e58400e0 	str	r0, [r4, #224]
    9b48:	eaffffc8 	b	9a70 <RemoteFocusd_LoadConfigFile+0x38>
    9b4c:	0000e234 	.word	0x0000e234
    9b50:	0000e208 	.word	0x0000e208
    9b54:	0000e238 	.word	0x0000e238
    9b58:	0000e980 	.word	0x0000e980
    9b5c:	0000e264 	.word	0x0000e264
    9b60:	0000e258 	.word	0x0000e258

00009b64 <RemoteFocusd_LoadMappingTable>:
    9b64:	e92d4070 	push	{r4, r5, r6, lr}
    9b68:	e59f0080 	ldr	r0, [pc, #128]	; 9bf0 <RemoteFocusd_LoadMappingTable+0x8c>
    9b6c:	e24dd008 	sub	sp, sp, #8	; 0x8
    9b70:	e59f107c 	ldr	r1, [pc, #124]	; 9bf4 <RemoteFocusd_LoadMappingTable+0x90>
    9b74:	ebfffd3b 	bl	9068 <_init+0x100>
    9b78:	e2505000 	subs	r5, r0, #0	; 0x0
    9b7c:	13a04000 	movne	r4, #0	; 0x0
    9b80:	128d6004 	addne	r6, sp, #4	; 0x4
    9b84:	1a00000b 	bne	9bb8 <RemoteFocusd_LoadMappingTable+0x54>
    9b88:	e59f0068 	ldr	r0, [pc, #104]	; 9bf8 <RemoteFocusd_LoadMappingTable+0x94>
    9b8c:	ebfffd98 	bl	91f4 <_init+0x28c>
    9b90:	e3e00000 	mvn	r0, #0	; 0x0
    9b94:	e28dd008 	add	sp, sp, #8	; 0x8
    9b98:	e8bd8070 	pop	{r4, r5, r6, pc}
    9b9c:	e59fc058 	ldr	ip, [pc, #88]	; 9bfc <RemoteFocusd_LoadMappingTable+0x98>
    9ba0:	e154000c 	cmp	r4, ip
    9ba4:	0a00000d 	beq	9be0 <RemoteFocusd_LoadMappingTable+0x7c>
    9ba8:	ebfffd34 	bl	9080 <_init+0x118>
    9bac:	e59f304c 	ldr	r3, [pc, #76]	; 9c00 <RemoteFocusd_LoadMappingTable+0x9c>
    9bb0:	e7840003 	str	r0, [r4, r3]
    9bb4:	e2844004 	add	r4, r4, #4	; 0x4
    9bb8:	e59f1044 	ldr	r1, [pc, #68]	; 9c04 <RemoteFocusd_LoadMappingTable+0xa0>
    9bbc:	e1a02006 	mov	r2, r6
    9bc0:	e1a00005 	mov	r0, r5
    9bc4:	ebfffda8 	bl	926c <_init+0x304>
    9bc8:	e3a01000 	mov	r1, #0	; 0x0
    9bcc:	e3700001 	cmn	r0, #1	; 0x1
    9bd0:	e3a0200a 	mov	r2, #10	; 0xa
    9bd4:	e1a03001 	mov	r3, r1
    9bd8:	e1a00006 	mov	r0, r6
    9bdc:	1affffee 	bne	9b9c <RemoteFocusd_LoadMappingTable+0x38>
    9be0:	e1a00005 	mov	r0, r5
    9be4:	ebfffd13 	bl	9038 <_init+0xd0>
    9be8:	e3a00000 	mov	r0, #0	; 0x0
    9bec:	eaffffe8 	b	9b94 <RemoteFocusd_LoadMappingTable+0x30>
    9bf0:	0000e270 	.word	0x0000e270
    9bf4:	0000e234 	.word	0x0000e234
    9bf8:	0000e238 	.word	0x0000e238
    9bfc:	00001450 	.word	0x00001450
    9c00:	0001763c 	.word	0x0001763c
    9c04:	0000e980 	.word	0x0000e980

00009c08 <RemoteFocusd_LoadCapabilityFile>:
    9c08:	e92d4030 	push	{r4, r5, lr}
    9c0c:	e24dd0b4 	sub	sp, sp, #180	; 0xb4
    9c10:	e28d4004 	add	r4, sp, #4	; 0x4
    9c14:	e3a01040 	mov	r1, #64	; 0x40
    9c18:	e59f2104 	ldr	r2, [pc, #260]	; 9d24 <RemoteFocusd_LoadCapabilityFile+0x11c>
    9c1c:	e1a05000 	mov	r5, r0
    9c20:	e1a00004 	mov	r0, r4
    9c24:	ebfffd78 	bl	920c <_init+0x2a4>
    9c28:	e59f30f8 	ldr	r3, [pc, #248]	; 9d28 <RemoteFocusd_LoadCapabilityFile+0x120>
    9c2c:	e3a0c000 	mov	ip, #0	; 0x0
    9c30:	e58d3088 	str	r3, [sp, #136]
    9c34:	e3a02004 	mov	r2, #4	; 0x4
    9c38:	e28d30ac 	add	r3, sp, #172	; 0xac
    9c3c:	e59f00e8 	ldr	r0, [pc, #232]	; 9d2c <RemoteFocusd_LoadCapabilityFile+0x124>
    9c40:	e28d1084 	add	r1, sp, #132	; 0x84
    9c44:	e58d4084 	str	r4, [sp, #132]
    9c48:	e58d208c 	str	r2, [sp, #140]
    9c4c:	e58d3090 	str	r3, [sp, #144]
    9c50:	e58dc0a8 	str	ip, [sp, #168]
    9c54:	e58dc094 	str	ip, [sp, #148]
    9c58:	e58dc098 	str	ip, [sp, #152]
    9c5c:	e58dc09c 	str	ip, [sp, #156]
    9c60:	e58dc0a0 	str	ip, [sp, #160]
    9c64:	e58dc0a4 	str	ip, [sp, #164]
    9c68:	ebfffd46 	bl	9188 <_init+0x220>
    9c6c:	e3500000 	cmp	r0, #0	; 0x0
    9c70:	0a000005 	beq	9c8c <RemoteFocusd_LoadCapabilityFile+0x84>
    9c74:	e1a01000 	mov	r1, r0
    9c78:	e59f00b0 	ldr	r0, [pc, #176]	; 9d30 <RemoteFocusd_LoadCapabilityFile+0x128>
    9c7c:	ebfffd38 	bl	9164 <_init+0x1fc>
    9c80:	e3e00000 	mvn	r0, #0	; 0x0
    9c84:	e28dd0b4 	add	sp, sp, #180	; 0xb4
    9c88:	e8bd8030 	pop	{r4, r5, pc}
    9c8c:	e59d30ac 	ldr	r3, [sp, #172]
    9c90:	e3530004 	cmp	r3, #4	; 0x4
    9c94:	979ff103 	ldrls	pc, [pc, r3, lsl #2]
    9c98:	ea000004 	b	9cb0 <RemoteFocusd_LoadCapabilityFile+0xa8>
    9c9c:	00009cb0 	.word	0x00009cb0
    9ca0:	00009d14 	.word	0x00009d14
    9ca4:	00009d00 	.word	0x00009d00
    9ca8:	00009cb0 	.word	0x00009cb0
    9cac:	00009cec 	.word	0x00009cec
    9cb0:	e3a03000 	mov	r3, #0	; 0x0
    9cb4:	e5853134 	str	r3, [r5, #308]
    9cb8:	e5853130 	str	r3, [r5, #304]
    9cbc:	e59f0070 	ldr	r0, [pc, #112]	; 9d34 <RemoteFocusd_LoadCapabilityFile+0x12c>
    9cc0:	ebfffd4b 	bl	91f4 <_init+0x28c>
    9cc4:	e5951130 	ldr	r1, [r5, #304]
    9cc8:	e59f0068 	ldr	r0, [pc, #104]	; 9d38 <RemoteFocusd_LoadCapabilityFile+0x130>
    9ccc:	ebfffd24 	bl	9164 <_init+0x1fc>
    9cd0:	e5951134 	ldr	r1, [r5, #308]
    9cd4:	e59f0060 	ldr	r0, [pc, #96]	; 9d3c <RemoteFocusd_LoadCapabilityFile+0x134>
    9cd8:	ebfffd21 	bl	9164 <_init+0x1fc>
    9cdc:	e59f0050 	ldr	r0, [pc, #80]	; 9d34 <RemoteFocusd_LoadCapabilityFile+0x12c>
    9ce0:	ebfffd43 	bl	91f4 <_init+0x28c>
    9ce4:	e3a00000 	mov	r0, #0	; 0x0
    9ce8:	eaffffe5 	b	9c84 <RemoteFocusd_LoadCapabilityFile+0x7c>
    9cec:	e3a03000 	mov	r3, #0	; 0x0
    9cf0:	e3a02001 	mov	r2, #1	; 0x1
    9cf4:	e5853130 	str	r3, [r5, #304]
    9cf8:	e5852134 	str	r2, [r5, #308]
    9cfc:	eaffffee 	b	9cbc <RemoteFocusd_LoadCapabilityFile+0xb4>
    9d00:	e3a03001 	mov	r3, #1	; 0x1
    9d04:	e3a02000 	mov	r2, #0	; 0x0
    9d08:	e5853130 	str	r3, [r5, #304]
    9d0c:	e5852134 	str	r2, [r5, #308]
    9d10:	eaffffe9 	b	9cbc <RemoteFocusd_LoadCapabilityFile+0xb4>
    9d14:	e3a03001 	mov	r3, #1	; 0x1
    9d18:	e5853134 	str	r3, [r5, #308]
    9d1c:	e5853130 	str	r3, [r5, #304]
    9d20:	eaffffe5 	b	9cbc <RemoteFocusd_LoadCapabilityFile+0xb4>
    9d24:	0000e298 	.word	0x0000e298
    9d28:	00002001 	.word	0x00002001
    9d2c:	0000e2b8 	.word	0x0000e2b8
    9d30:	0000e2dc 	.word	0x0000e2dc
    9d34:	0000e310 	.word	0x0000e310
    9d38:	0000e340 	.word	0x0000e340
    9d3c:	0000e354 	.word	0x0000e354

00009d40 <RemoteFocusd_Init>:
    9d40:	e92d4070 	push	{r4, r5, r6, lr}
    9d44:	e3a03000 	mov	r3, #0	; 0x0
    9d48:	e24dd010 	sub	sp, sp, #16	; 0x10
    9d4c:	e58030dc 	str	r3, [r0, #220]
    9d50:	e58030a4 	str	r3, [r0, #164]
    9d54:	e58030d8 	str	r3, [r0, #216]
    9d58:	e1a05000 	mov	r5, r0
    9d5c:	ebffffa9 	bl	9c08 <RemoteFocusd_LoadCapabilityFile>
    9d60:	e3500000 	cmp	r0, #0	; 0x0
    9d64:	0a000004 	beq	9d7c <RemoteFocusd_Init+0x3c>
    9d68:	e59f0268 	ldr	r0, [pc, #616]	; 9fd8 <RemoteFocusd_Init+0x298>
    9d6c:	ebfffd20 	bl	91f4 <_init+0x28c>
    9d70:	e3e00000 	mvn	r0, #0	; 0x0
    9d74:	e28dd010 	add	sp, sp, #16	; 0x10
    9d78:	e8bd8070 	pop	{r4, r5, r6, pc}
    9d7c:	e1a00005 	mov	r0, r5
    9d80:	ebffff2c 	bl	9a38 <RemoteFocusd_LoadConfigFile>
    9d84:	e3500000 	cmp	r0, #0	; 0x0
    9d88:	0a000003 	beq	9d9c <RemoteFocusd_Init+0x5c>
    9d8c:	e59f0248 	ldr	r0, [pc, #584]	; 9fdc <RemoteFocusd_Init+0x29c>
    9d90:	ebfffd17 	bl	91f4 <_init+0x28c>
    9d94:	e3e00000 	mvn	r0, #0	; 0x0
    9d98:	eafffff5 	b	9d74 <RemoteFocusd_Init+0x34>
    9d9c:	e2850008 	add	r0, r5, #8	; 0x8
    9da0:	e59f1238 	ldr	r1, [pc, #568]	; 9fe0 <RemoteFocusd_Init+0x2a0>
    9da4:	ebfffc97 	bl	9008 <_init+0xa0>
    9da8:	e3500000 	cmp	r0, #0	; 0x0
    9dac:	0a000005 	beq	9dc8 <RemoteFocusd_Init+0x88>
    9db0:	e59f022c 	ldr	r0, [pc, #556]	; 9fe4 <RemoteFocusd_Init+0x2a4>
    9db4:	ebfffd0e 	bl	91f4 <_init+0x28c>
    9db8:	e59f0228 	ldr	r0, [pc, #552]	; 9fe8 <RemoteFocusd_Init+0x2a8>
    9dbc:	ebfffd0c 	bl	91f4 <_init+0x28c>
    9dc0:	e3e00000 	mvn	r0, #0	; 0x0
    9dc4:	eaffffea 	b	9d74 <RemoteFocusd_Init+0x34>
    9dc8:	e5950008 	ldr	r0, [r5, #8]
    9dcc:	ebfffd17 	bl	9230 <_init+0x2c8>
    9dd0:	e1a022a0 	lsr	r2, r0, #5
    9dd4:	e1a02102 	lsl	r2, r2, #2
    9dd8:	e0822005 	add	r2, r2, r5
    9ddc:	e5921018 	ldr	r1, [r2, #24]
    9de0:	e1a0e000 	mov	lr, r0
    9de4:	e3a03001 	mov	r3, #1	; 0x1
    9de8:	e200001f 	and	r0, r0, #31	; 0x1f
    9dec:	e1811013 	orr	r1, r1, r3, lsl r0
    9df0:	e595c00c 	ldr	ip, [r5, #12]
    9df4:	e5821018 	str	r1, [r2, #24]
    9df8:	e15e000c 	cmp	lr, ip
    9dfc:	c585e00c 	strgt	lr, [r5, #12]
    9e00:	e585e010 	str	lr, [r5, #16]
    9e04:	e1a00005 	mov	r0, r5
    9e08:	ebfffea2 	bl	9898 <RemoteFocusd_InitFIFO>
    9e0c:	e3500000 	cmp	r0, #0	; 0x0
    9e10:	0a000003 	beq	9e24 <RemoteFocusd_Init+0xe4>
    9e14:	e59f01d0 	ldr	r0, [pc, #464]	; 9fec <RemoteFocusd_Init+0x2ac>
    9e18:	ebfffcf5 	bl	91f4 <_init+0x28c>
    9e1c:	e3e00000 	mvn	r0, #0	; 0x0
    9e20:	eaffffd3 	b	9d74 <RemoteFocusd_Init+0x34>
    9e24:	e1a00005 	mov	r0, r5
    9e28:	ebfffe70 	bl	97f0 <RemoteFocusd_InitShareMem>
    9e2c:	e3500000 	cmp	r0, #0	; 0x0
    9e30:	0a000003 	beq	9e44 <RemoteFocusd_Init+0x104>
    9e34:	e59f01b4 	ldr	r0, [pc, #436]	; 9ff0 <RemoteFocusd_Init+0x2b0>
    9e38:	ebfffced 	bl	91f4 <_init+0x28c>
    9e3c:	e3e00000 	mvn	r0, #0	; 0x0
    9e40:	eaffffcb 	b	9d74 <RemoteFocusd_Init+0x34>
    9e44:	ebfffc69 	bl	8ff0 <_init+0x88>
    9e48:	e3500000 	cmp	r0, #0	; 0x0
    9e4c:	1a000005 	bne	9e68 <RemoteFocusd_Init+0x128>
    9e50:	e59f019c 	ldr	r0, [pc, #412]	; 9ff4 <RemoteFocusd_Init+0x2b4>
    9e54:	ebfffce6 	bl	91f4 <_init+0x28c>
    9e58:	e59f0198 	ldr	r0, [pc, #408]	; 9ff8 <RemoteFocusd_Init+0x2b8>
    9e5c:	ebfffce4 	bl	91f4 <_init+0x28c>
    9e60:	e3e00000 	mvn	r0, #0	; 0x0
    9e64:	eaffffc2 	b	9d74 <RemoteFocusd_Init+0x34>
    9e68:	e5953134 	ldr	r3, [r5, #308]
    9e6c:	e5850004 	str	r0, [r5, #4]
    9e70:	e3530000 	cmp	r3, #0	; 0x0
    9e74:	1a00000a 	bne	9ea4 <RemoteFocusd_Init+0x164>
    9e78:	e5953130 	ldr	r3, [r5, #304]
    9e7c:	e3530000 	cmp	r3, #0	; 0x0
    9e80:	0a00000f 	beq	9ec4 <RemoteFocusd_Init+0x184>
    9e84:	e1a00005 	mov	r0, r5
    9e88:	ebfffe06 	bl	96a8 <RemoteFocusd_InitZoomMotorThread>
    9e8c:	e3500000 	cmp	r0, #0	; 0x0
    9e90:	0a00000b 	beq	9ec4 <RemoteFocusd_Init+0x184>
    9e94:	e59f0160 	ldr	r0, [pc, #352]	; 9ffc <RemoteFocusd_Init+0x2bc>
    9e98:	ebfffcd5 	bl	91f4 <_init+0x28c>
    9e9c:	e3e00000 	mvn	r0, #0	; 0x0
    9ea0:	eaffffb3 	b	9d74 <RemoteFocusd_Init+0x34>
    9ea4:	e1a00005 	mov	r0, r5
    9ea8:	ebfffe20 	bl	9730 <RemoteFocusd_InitFocusMotorThread>
    9eac:	e3500000 	cmp	r0, #0	; 0x0
    9eb0:	0afffff0 	beq	9e78 <RemoteFocusd_Init+0x138>
    9eb4:	e59f0144 	ldr	r0, [pc, #324]	; a000 <RemoteFocusd_Init+0x2c0>
    9eb8:	ebfffccd 	bl	91f4 <_init+0x28c>
    9ebc:	e3e00000 	mvn	r0, #0	; 0x0
    9ec0:	eaffffab 	b	9d74 <RemoteFocusd_Init+0x34>
    9ec4:	e3a01000 	mov	r1, #0	; 0x0
    9ec8:	e3a02001 	mov	r2, #1	; 0x1
    9ecc:	e2850e11 	add	r0, r5, #272	; 0x110
    9ed0:	ebfffc61 	bl	905c <_init+0xf4>
    9ed4:	e59f0128 	ldr	r0, [pc, #296]	; a004 <RemoteFocusd_Init+0x2c4>
    9ed8:	e59f1128 	ldr	r1, [pc, #296]	; a008 <RemoteFocusd_Init+0x2c8>
    9edc:	ebfffc61 	bl	9068 <_init+0x100>
    9ee0:	e2506000 	subs	r6, r0, #0	; 0x0
    9ee4:	0a00000b 	beq	9f18 <RemoteFocusd_Init+0x1d8>
    9ee8:	ebfffcc4 	bl	9200 <_init+0x298>
    9eec:	e28d4004 	add	r4, sp, #4	; 0x4
    9ef0:	e1a03000 	mov	r3, r0
    9ef4:	e59f2110 	ldr	r2, [pc, #272]	; a00c <RemoteFocusd_Init+0x2cc>
    9ef8:	e3a01008 	mov	r1, #8	; 0x8
    9efc:	e1a00004 	mov	r0, r4
    9f00:	ebfffcc1 	bl	920c <_init+0x2a4>
    9f04:	e1a00004 	mov	r0, r4
    9f08:	e1a01006 	mov	r1, r6
    9f0c:	ebfffcd9 	bl	9278 <_init+0x310>
    9f10:	e1a00006 	mov	r0, r6
    9f14:	ebfffc47 	bl	9038 <_init+0xd0>
    9f18:	ebfffcb8 	bl	9200 <_init+0x298>
    9f1c:	e5850000 	str	r0, [r5]
    9f20:	e3a00001 	mov	r0, #1	; 0x1
    9f24:	e1a01000 	mov	r1, r0
    9f28:	e3a02000 	mov	r2, #0	; 0x0
    9f2c:	e2853e12 	add	r3, r5, #288	; 0x120
    9f30:	ebfffc3a 	bl	9020 <_init+0xb8>
    9f34:	e3a00001 	mov	r0, #1	; 0x1
    9f38:	e1a01000 	mov	r1, r0
    9f3c:	e3a02000 	mov	r2, #0	; 0x0
    9f40:	e2853f4a 	add	r3, r5, #296	; 0x128
    9f44:	ebfffc35 	bl	9020 <_init+0xb8>
    9f48:	e5950134 	ldr	r0, [r5, #308]
    9f4c:	e3500000 	cmp	r0, #0	; 0x0
    9f50:	0affff87 	beq	9d74 <RemoteFocusd_Init+0x34>
    9f54:	e59f00b4 	ldr	r0, [pc, #180]	; a010 <RemoteFocusd_Init+0x2d0>
    9f58:	e59f10b4 	ldr	r1, [pc, #180]	; a014 <RemoteFocusd_Init+0x2d4>
    9f5c:	ebfffc41 	bl	9068 <_init+0x100>
    9f60:	e2504000 	subs	r4, r0, #0	; 0x0
    9f64:	13a05000 	movne	r5, #0	; 0x0
    9f68:	128d600c 	addne	r6, sp, #12	; 0xc
    9f6c:	0a000011 	beq	9fb8 <RemoteFocusd_Init+0x278>
    9f70:	e59f10a0 	ldr	r1, [pc, #160]	; a018 <RemoteFocusd_Init+0x2d8>
    9f74:	e1a02006 	mov	r2, r6
    9f78:	e1a00004 	mov	r0, r4
    9f7c:	ebfffcba 	bl	926c <_init+0x304>
    9f80:	e3a01000 	mov	r1, #0	; 0x0
    9f84:	e3700001 	cmn	r0, #1	; 0x1
    9f88:	e3a0200a 	mov	r2, #10	; 0xa
    9f8c:	e1a03001 	mov	r3, r1
    9f90:	e1a00006 	mov	r0, r6
    9f94:	0a00000b 	beq	9fc8 <RemoteFocusd_Init+0x288>
    9f98:	e59fc07c 	ldr	ip, [pc, #124]	; a01c <RemoteFocusd_Init+0x2dc>
    9f9c:	e155000c 	cmp	r5, ip
    9fa0:	0a000008 	beq	9fc8 <RemoteFocusd_Init+0x288>
    9fa4:	ebfffc35 	bl	9080 <_init+0x118>
    9fa8:	e59f3070 	ldr	r3, [pc, #112]	; a020 <RemoteFocusd_Init+0x2e0>
    9fac:	e7850003 	str	r0, [r5, r3]
    9fb0:	e2855004 	add	r5, r5, #4	; 0x4
    9fb4:	eaffffed 	b	9f70 <RemoteFocusd_Init+0x230>
    9fb8:	e59f0064 	ldr	r0, [pc, #100]	; a024 <RemoteFocusd_Init+0x2e4>
    9fbc:	ebfffc8c 	bl	91f4 <_init+0x28c>
    9fc0:	e1a00004 	mov	r0, r4
    9fc4:	eaffff6a 	b	9d74 <RemoteFocusd_Init+0x34>
    9fc8:	e1a00004 	mov	r0, r4
    9fcc:	ebfffc19 	bl	9038 <_init+0xd0>
    9fd0:	e3a00000 	mov	r0, #0	; 0x0
    9fd4:	eaffff66 	b	9d74 <RemoteFocusd_Init+0x34>
    9fd8:	0000e36c 	.word	0x0000e36c
    9fdc:	0000e3a8 	.word	0x0000e3a8
    9fe0:	0000e1c8 	.word	0x0000e1c8
    9fe4:	0000e1dc 	.word	0x0000e1dc
    9fe8:	0000e3e0 	.word	0x0000e3e0
    9fec:	0000e410 	.word	0x0000e410
    9ff0:	0000e440 	.word	0x0000e440
    9ff4:	0000e0c0 	.word	0x0000e0c0
    9ff8:	0000e474 	.word	0x0000e474
    9ffc:	0000e4e4 	.word	0x0000e4e4
    a000:	0000e4a8 	.word	0x0000e4a8
    a004:	0000e04c 	.word	0x0000e04c
    a008:	0000e200 	.word	0x0000e200
    a00c:	0000e204 	.word	0x0000e204
    a010:	0000e270 	.word	0x0000e270
    a014:	0000e234 	.word	0x0000e234
    a018:	0000e980 	.word	0x0000e980
    a01c:	00001450 	.word	0x00001450
    a020:	0001763c 	.word	0x0001763c
    a024:	0000e238 	.word	0x0000e238

0000a028 <RemoteFocusd_CheckMessage>:
    a028:	e52de004 	push	{lr}		; (str lr, [sp, #-4]!)
    a02c:	e3510000 	cmp	r1, #0	; 0x0
    a030:	c3a01000 	movgt	r1, #0	; 0x0
    a034:	d3a01001 	movle	r1, #1	; 0x1
    a038:	e3500001 	cmp	r0, #1	; 0x1
    a03c:	01a00001 	moveq	r0, r1
    a040:	13810001 	orrne	r0, r1, #1	; 0x1
    a044:	e3500000 	cmp	r0, #0	; 0x0
    a048:	e24dd004 	sub	sp, sp, #4	; 0x4
    a04c:	0a000002 	beq	a05c <RemoteFocusd_CheckMessage+0x34>
    a050:	e59f000c 	ldr	r0, [pc, #12]	; a064 <RemoteFocusd_CheckMessage+0x3c>
    a054:	ebfffc66 	bl	91f4 <_init+0x28c>
    a058:	e3e00000 	mvn	r0, #0	; 0x0
    a05c:	e28dd004 	add	sp, sp, #4	; 0x4
    a060:	e8bd8000 	pop	{pc}
    a064:	0000e520 	.word	0x0000e520

0000a068 <RemoteFocusd_HandleEventMessage>:
    a068:	e92d4030 	push	{r4, r5, lr}
    a06c:	e5923008 	ldr	r3, [r2, #8]
    a070:	e24dd00c 	sub	sp, sp, #12	; 0xc
    a074:	e3530014 	cmp	r3, #20	; 0x14
    a078:	e1a04000 	mov	r4, r0
    a07c:	0a000030 	beq	a144 <RemoteFocusd_HandleEventMessage+0xdc>
    a080:	e3530015 	cmp	r3, #21	; 0x15
    a084:	0a000024 	beq	a11c <RemoteFocusd_HandleEventMessage+0xb4>
    a088:	e3530013 	cmp	r3, #19	; 0x13
    a08c:	0a000004 	beq	a0a4 <RemoteFocusd_HandleEventMessage+0x3c>
    a090:	e59f0344 	ldr	r0, [pc, #836]	; a3dc <RemoteFocusd_HandleEventMessage+0x374>
    a094:	ebfffc56 	bl	91f4 <_init+0x28c>
    a098:	e3e00000 	mvn	r0, #0	; 0x0
    a09c:	e28dd00c 	add	sp, sp, #12	; 0xc
    a0a0:	e8bd8030 	pop	{r4, r5, pc}
    a0a4:	e592500c 	ldr	r5, [r2, #12]
    a0a8:	e3550002 	cmp	r5, #2	; 0x2
    a0ac:	0a000060 	beq	a234 <RemoteFocusd_HandleEventMessage+0x1cc>
    a0b0:	e3550001 	cmp	r5, #1	; 0x1
    a0b4:	0a000036 	beq	a194 <RemoteFocusd_HandleEventMessage+0x12c>
    a0b8:	e3550005 	cmp	r5, #5	; 0x5
    a0bc:	1afffff3 	bne	a090 <RemoteFocusd_HandleEventMessage+0x28>
    a0c0:	e5903134 	ldr	r3, [r0, #308]
    a0c4:	e3530000 	cmp	r3, #0	; 0x0
    a0c8:	1a0000b6 	bne	a3a8 <RemoteFocusd_HandleEventMessage+0x340>
    a0cc:	e5943130 	ldr	r3, [r4, #304]
    a0d0:	e3530000 	cmp	r3, #0	; 0x0
    a0d4:	0a000018 	beq	a13c <RemoteFocusd_HandleEventMessage+0xd4>
    a0d8:	e3a05000 	mov	r5, #0	; 0x0
    a0dc:	e3a03005 	mov	r3, #5	; 0x5
    a0e0:	e3a02001 	mov	r2, #1	; 0x1
    a0e4:	e58430e4 	str	r3, [r4, #228]
    a0e8:	e58420d8 	str	r2, [r4, #216]
    a0ec:	e58450f0 	str	r5, [r4, #240]
    a0f0:	e28410d8 	add	r1, r4, #216	; 0xd8
    a0f4:	e5940128 	ldr	r0, [r4, #296]
    a0f8:	e2822003 	add	r2, r2, #3	; 0x3
    a0fc:	e283303b 	add	r3, r3, #59	; 0x3b
    a100:	ebfffc35 	bl	91dc <_init+0x274>
    a104:	e1500005 	cmp	r0, r5
    a108:	aa00000b 	bge	a13c <RemoteFocusd_HandleEventMessage+0xd4>
    a10c:	e59f02cc 	ldr	r0, [pc, #716]	; a3e0 <RemoteFocusd_HandleEventMessage+0x378>
    a110:	ebfffc37 	bl	91f4 <_init+0x28c>
    a114:	e1a00005 	mov	r0, r5
    a118:	eaffffdf 	b	a09c <RemoteFocusd_HandleEventMessage+0x34>
    a11c:	e5903130 	ldr	r3, [r0, #304]
    a120:	e3530000 	cmp	r3, #0	; 0x0
    a124:	0a000004 	beq	a13c <RemoteFocusd_HandleEventMessage+0xd4>
    a128:	e592200c 	ldr	r2, [r2, #12]
    a12c:	e3520002 	cmp	r2, #2	; 0x2
    a130:	0a000073 	beq	a304 <RemoteFocusd_HandleEventMessage+0x29c>
    a134:	e3520001 	cmp	r2, #1	; 0x1
    a138:	0a00000f 	beq	a17c <RemoteFocusd_HandleEventMessage+0x114>
    a13c:	e3a00000 	mov	r0, #0	; 0x0
    a140:	eaffffd5 	b	a09c <RemoteFocusd_HandleEventMessage+0x34>
    a144:	e5903130 	ldr	r3, [r0, #304]
    a148:	e3530000 	cmp	r3, #0	; 0x0
    a14c:	0afffffa 	beq	a13c <RemoteFocusd_HandleEventMessage+0xd4>
    a150:	e592200c 	ldr	r2, [r2, #12]
    a154:	e3520002 	cmp	r2, #2	; 0x2
    a158:	0a000046 	beq	a278 <RemoteFocusd_HandleEventMessage+0x210>
    a15c:	e3520001 	cmp	r2, #1	; 0x1
    a160:	1afffff5 	bne	a13c <RemoteFocusd_HandleEventMessage+0xd4>
    a164:	e59f0278 	ldr	r0, [pc, #632]	; a3e4 <RemoteFocusd_HandleEventMessage+0x37c>
    a168:	ebfffc21 	bl	91f4 <_init+0x28c>
    a16c:	e3a03000 	mov	r3, #0	; 0x0
    a170:	e1a00003 	mov	r0, r3
    a174:	e5843104 	str	r3, [r4, #260]
    a178:	eaffffc7 	b	a09c <RemoteFocusd_HandleEventMessage+0x34>
    a17c:	e59f0264 	ldr	r0, [pc, #612]	; a3e8 <RemoteFocusd_HandleEventMessage+0x380>
    a180:	ebfffc1b 	bl	91f4 <_init+0x28c>
    a184:	e3a03000 	mov	r3, #0	; 0x0
    a188:	e1a00003 	mov	r0, r3
    a18c:	e5843104 	str	r3, [r4, #260]
    a190:	eaffffc1 	b	a09c <RemoteFocusd_HandleEventMessage+0x34>
    a194:	e1a0000d 	mov	r0, sp
    a198:	e3a01000 	mov	r1, #0	; 0x0
    a19c:	ebfffbd8 	bl	9104 <_init+0x19c>
    a1a0:	e5943134 	ldr	r3, [r4, #308]
    a1a4:	e59dc004 	ldr	ip, [sp, #4]
    a1a8:	e3530000 	cmp	r3, #0	; 0x0
    a1ac:	e59d0000 	ldr	r0, [sp]
    a1b0:	0affffe1 	beq	a13c <RemoteFocusd_HandleEventMessage+0xd4>
    a1b4:	e59f2230 	ldr	r2, [pc, #560]	; a3ec <RemoteFocusd_HandleEventMessage+0x384>
    a1b8:	e1a03380 	lsl	r3, r0, #7
    a1bc:	e0c1ec92 	smull	lr, r1, r2, ip
    a1c0:	e0433100 	sub	r3, r3, r0, lsl #2
    a1c4:	e0833000 	add	r3, r3, r0
    a1c8:	e1a02fcc 	asr	r2, ip, #31
    a1cc:	e0622341 	rsb	r2, r2, r1, asr #6
    a1d0:	e1a03183 	lsl	r3, r3, #3
    a1d4:	e5941098 	ldr	r1, [r4, #152]
    a1d8:	e0833002 	add	r3, r3, r2
    a1dc:	e0612003 	rsb	r2, r1, r3
    a1e0:	e3520e7d 	cmp	r2, #2000	; 0x7d0
    a1e4:	8a000061 	bhi	a370 <RemoteFocusd_HandleEventMessage+0x308>
    a1e8:	e3520000 	cmp	r2, #0	; 0x0
    a1ec:	0affffd2 	beq	a13c <RemoteFocusd_HandleEventMessage+0xd4>
    a1f0:	e3a01000 	mov	r1, #0	; 0x0
    a1f4:	e59f01f4 	ldr	r0, [pc, #500]	; a3f0 <RemoteFocusd_HandleEventMessage+0x388>
    a1f8:	ebfffbd9 	bl	9164 <_init+0x1fc>
    a1fc:	e3a03003 	mov	r3, #3	; 0x3
    a200:	e58430b0 	str	r3, [r4, #176]
    a204:	e58450a4 	str	r5, [r4, #164]
    a208:	e28410a4 	add	r1, r4, #164	; 0xa4
    a20c:	e5940120 	ldr	r0, [r4, #288]
    a210:	e3a02004 	mov	r2, #4	; 0x4
    a214:	e283303d 	add	r3, r3, #61	; 0x3d
    a218:	ebfffbef 	bl	91dc <_init+0x274>
    a21c:	e3500000 	cmp	r0, #0	; 0x0
    a220:	aaffffc5 	bge	a13c <RemoteFocusd_HandleEventMessage+0xd4>
    a224:	e59f01c8 	ldr	r0, [pc, #456]	; a3f4 <RemoteFocusd_HandleEventMessage+0x38c>
    a228:	ebfffbf1 	bl	91f4 <_init+0x28c>
    a22c:	e3a00000 	mov	r0, #0	; 0x0
    a230:	eaffff99 	b	a09c <RemoteFocusd_HandleEventMessage+0x34>
    a234:	e3a01000 	mov	r1, #0	; 0x0
    a238:	e1a0000d 	mov	r0, sp
    a23c:	ebfffbb0 	bl	9104 <_init+0x19c>
    a240:	e59dc004 	ldr	ip, [sp, #4]
    a244:	e59f21a0 	ldr	r2, [pc, #416]	; a3ec <RemoteFocusd_HandleEventMessage+0x384>
    a248:	e59d1000 	ldr	r1, [sp]
    a24c:	e0c03c92 	smull	r3, r0, r2, ip
    a250:	e1a03381 	lsl	r3, r1, #7
    a254:	e0433101 	sub	r3, r3, r1, lsl #2
    a258:	e0833001 	add	r3, r3, r1
    a25c:	e1a0cfcc 	asr	ip, ip, #31
    a260:	e06cc340 	rsb	ip, ip, r0, asr #6
    a264:	e1a03183 	lsl	r3, r3, #3
    a268:	e083300c 	add	r3, r3, ip
    a26c:	e3a00000 	mov	r0, #0	; 0x0
    a270:	e5843098 	str	r3, [r4, #152]
    a274:	eaffff88 	b	a09c <RemoteFocusd_HandleEventMessage+0x34>
    a278:	e59f0178 	ldr	r0, [pc, #376]	; a3f8 <RemoteFocusd_HandleEventMessage+0x390>
    a27c:	ebfffbdc 	bl	91f4 <_init+0x28c>
    a280:	e3a01000 	mov	r1, #0	; 0x0
    a284:	e1a0000d 	mov	r0, sp
    a288:	ebfffb9d 	bl	9104 <_init+0x19c>
    a28c:	e59dc004 	ldr	ip, [sp, #4]
    a290:	e59f2154 	ldr	r2, [pc, #340]	; a3ec <RemoteFocusd_HandleEventMessage+0x384>
    a294:	e59d1000 	ldr	r1, [sp]
    a298:	e0c03c92 	smull	r3, r0, r2, ip
    a29c:	e1a03381 	lsl	r3, r1, #7
    a2a0:	e0433101 	sub	r3, r3, r1, lsl #2
    a2a4:	e0833001 	add	r3, r3, r1
    a2a8:	e1a0cfcc 	asr	ip, ip, #31
    a2ac:	e5945104 	ldr	r5, [r4, #260]
    a2b0:	e06cc340 	rsb	ip, ip, r0, asr #6
    a2b4:	e1a03183 	lsl	r3, r3, #3
    a2b8:	e083300c 	add	r3, r3, ip
    a2bc:	e3550000 	cmp	r5, #0	; 0x0
    a2c0:	e5843098 	str	r3, [r4, #152]
    a2c4:	1affff9c 	bne	a13c <RemoteFocusd_HandleEventMessage+0xd4>
    a2c8:	e3a03001 	mov	r3, #1	; 0x1
    a2cc:	e58430d8 	str	r3, [r4, #216]
    a2d0:	e5843104 	str	r3, [r4, #260]
    a2d4:	e58430e4 	str	r3, [r4, #228]
    a2d8:	e58430ec 	str	r3, [r4, #236]
    a2dc:	e58450e8 	str	r5, [r4, #232]
    a2e0:	e28410d8 	add	r1, r4, #216	; 0xd8
    a2e4:	e5940128 	ldr	r0, [r4, #296]
    a2e8:	e3a02004 	mov	r2, #4	; 0x4
    a2ec:	e283303f 	add	r3, r3, #63	; 0x3f
    a2f0:	ebfffbb9 	bl	91dc <_init+0x274>
    a2f4:	e3500000 	cmp	r0, #0	; 0x0
    a2f8:	baffff83 	blt	a10c <RemoteFocusd_HandleEventMessage+0xa4>
    a2fc:	e3a00000 	mov	r0, #0	; 0x0
    a300:	eaffff65 	b	a09c <RemoteFocusd_HandleEventMessage+0x34>
    a304:	e59f00f0 	ldr	r0, [pc, #240]	; a3fc <RemoteFocusd_HandleEventMessage+0x394>
    a308:	ebfffbb9 	bl	91f4 <_init+0x28c>
    a30c:	e3a01000 	mov	r1, #0	; 0x0
    a310:	e1a0000d 	mov	r0, sp
    a314:	ebfffb7a 	bl	9104 <_init+0x19c>
    a318:	e59dc004 	ldr	ip, [sp, #4]
    a31c:	e59f20c8 	ldr	r2, [pc, #200]	; a3ec <RemoteFocusd_HandleEventMessage+0x384>
    a320:	e59d1000 	ldr	r1, [sp]
    a324:	e0c0ec92 	smull	lr, r0, r2, ip
    a328:	e1a03381 	lsl	r3, r1, #7
    a32c:	e0433101 	sub	r3, r3, r1, lsl #2
    a330:	e0833001 	add	r3, r3, r1
    a334:	e1a0cfcc 	asr	ip, ip, #31
    a338:	e5945104 	ldr	r5, [r4, #260]
    a33c:	e06cc340 	rsb	ip, ip, r0, asr #6
    a340:	e1a03183 	lsl	r3, r3, #3
    a344:	e083300c 	add	r3, r3, ip
    a348:	e3550000 	cmp	r5, #0	; 0x0
    a34c:	e5843098 	str	r3, [r4, #152]
    a350:	1affff79 	bne	a13c <RemoteFocusd_HandleEventMessage+0xd4>
    a354:	e3a03001 	mov	r3, #1	; 0x1
    a358:	e58430d8 	str	r3, [r4, #216]
    a35c:	e5843104 	str	r3, [r4, #260]
    a360:	e58430e4 	str	r3, [r4, #228]
    a364:	e58430ec 	str	r3, [r4, #236]
    a368:	e58430e8 	str	r3, [r4, #232]
    a36c:	eaffffdb 	b	a2e0 <RemoteFocusd_HandleEventMessage+0x278>
    a370:	e3a01002 	mov	r1, #2	; 0x2
    a374:	e59f0084 	ldr	r0, [pc, #132]	; a400 <RemoteFocusd_HandleEventMessage+0x398>
    a378:	ebfffb79 	bl	9164 <_init+0x1fc>
    a37c:	e3a02004 	mov	r2, #4	; 0x4
    a380:	e58450a4 	str	r5, [r4, #164]
    a384:	e58420b0 	str	r2, [r4, #176]
    a388:	e28410a4 	add	r1, r4, #164	; 0xa4
    a38c:	e5940120 	ldr	r0, [r4, #288]
    a390:	e3a03040 	mov	r3, #64	; 0x40
    a394:	ebfffb90 	bl	91dc <_init+0x274>
    a398:	e3500000 	cmp	r0, #0	; 0x0
    a39c:	baffffa0 	blt	a224 <RemoteFocusd_HandleEventMessage+0x1bc>
    a3a0:	e3a00000 	mov	r0, #0	; 0x0
    a3a4:	eaffff3c 	b	a09c <RemoteFocusd_HandleEventMessage+0x34>
    a3a8:	e3a03001 	mov	r3, #1	; 0x1
    a3ac:	e58030a4 	str	r3, [r0, #164]
    a3b0:	e58050b0 	str	r5, [r0, #176]
    a3b4:	e28410a4 	add	r1, r4, #164	; 0xa4
    a3b8:	e5900120 	ldr	r0, [r0, #288]
    a3bc:	e3a02004 	mov	r2, #4	; 0x4
    a3c0:	e283303f 	add	r3, r3, #63	; 0x3f
    a3c4:	ebfffb84 	bl	91dc <_init+0x274>
    a3c8:	e3500000 	cmp	r0, #0	; 0x0
    a3cc:	aaffff3e 	bge	a0cc <RemoteFocusd_HandleEventMessage+0x64>
    a3d0:	e59f001c 	ldr	r0, [pc, #28]	; a3f4 <RemoteFocusd_HandleEventMessage+0x38c>
    a3d4:	ebfffb86 	bl	91f4 <_init+0x28c>
    a3d8:	eaffff3b 	b	a0cc <RemoteFocusd_HandleEventMessage+0x64>
    a3dc:	0000e520 	.word	0x0000e520
    a3e0:	0000e614 	.word	0x0000e614
    a3e4:	0000e668 	.word	0x0000e668
    a3e8:	0000e6a8 	.word	0x0000e6a8
    a3ec:	10624dd3 	.word	0x10624dd3
    a3f0:	0000e5c8 	.word	0x0000e5c8
    a3f4:	0000e590 	.word	0x0000e590
    a3f8:	0000e64c 	.word	0x0000e64c
    a3fc:	0000e688 	.word	0x0000e688
    a400:	0000e544 	.word	0x0000e544

0000a404 <RemoteFocusd_ParseFIFOCmd>:
    a404:	e92d4030 	push	{r4, r5, lr}
    a408:	e3530001 	cmp	r3, #1	; 0x1
    a40c:	e24dd0e4 	sub	sp, sp, #228	; 0xe4
    a410:	e1a04000 	mov	r4, r0
    a414:	0a000002 	beq	a424 <RemoteFocusd_ParseFIFOCmd+0x20>
    a418:	e3a00000 	mov	r0, #0	; 0x0
    a41c:	e28dd0e4 	add	sp, sp, #228	; 0xe4
    a420:	e8bd8030 	pop	{r4, r5, pc}
    a424:	e28d30e0 	add	r3, sp, #224	; 0xe0
    a428:	e3a0c00a 	mov	ip, #10	; 0xa
    a42c:	e523c004 	str	ip, [r3, #-4]!
    a430:	e5900004 	ldr	r0, [r0, #4]
    a434:	e28dc0d4 	add	ip, sp, #212	; 0xd4
    a438:	e28d500c 	add	r5, sp, #12	; 0xc
    a43c:	e88d1020 	stm	sp, {r5, ip}
    a440:	ebfffb14 	bl	9098 <_init+0x130>
    a444:	e3500000 	cmp	r0, #0	; 0x0
    a448:	0a000003 	beq	a45c <RemoteFocusd_ParseFIFOCmd+0x58>
    a44c:	e59f0030 	ldr	r0, [pc, #48]	; a484 <RemoteFocusd_ParseFIFOCmd+0x80>
    a450:	ebfffb67 	bl	91f4 <_init+0x28c>
    a454:	e3e00000 	mvn	r0, #0	; 0x0
    a458:	eaffffef 	b	a41c <RemoteFocusd_ParseFIFOCmd+0x18>
    a45c:	e1a00004 	mov	r0, r4
    a460:	e1a02005 	mov	r2, r5
    a464:	e59d10dc 	ldr	r1, [sp, #220]
    a468:	ebfffefe 	bl	a068 <RemoteFocusd_HandleEventMessage>
    a46c:	e3500000 	cmp	r0, #0	; 0x0
    a470:	0affffe8 	beq	a418 <RemoteFocusd_ParseFIFOCmd+0x14>
    a474:	e59f000c 	ldr	r0, [pc, #12]	; a488 <RemoteFocusd_ParseFIFOCmd+0x84>
    a478:	ebfffb5d 	bl	91f4 <_init+0x28c>
    a47c:	e3e00000 	mvn	r0, #0	; 0x0
    a480:	eaffffe5 	b	a41c <RemoteFocusd_ParseFIFOCmd+0x18>
    a484:	0000e6c8 	.word	0x0000e6c8
    a488:	0000e6f8 	.word	0x0000e6f8

0000a48c <RemoteFocusd_InformMotorThread>:
    a48c:	e92d4030 	push	{r4, r5, lr}
    a490:	e591c004 	ldr	ip, [r1, #4]
    a494:	e24dd004 	sub	sp, sp, #4	; 0x4
    a498:	e24c3001 	sub	r3, ip, #1	; 0x1
    a49c:	e1a05001 	mov	r5, r1
    a4a0:	e1a04000 	mov	r4, r0
    a4a4:	e353000d 	cmp	r3, #13	; 0xd
    a4a8:	979ff103 	ldrls	pc, [pc, r3, lsl #2]
    a4ac:	ea00001f 	b	a530 <RemoteFocusd_InformMotorThread+0xa4>
    a4b0:	0000a700 	.word	0x0000a700
    a4b4:	0000a75c 	.word	0x0000a75c
    a4b8:	0000a538 	.word	0x0000a538
    a4bc:	0000a538 	.word	0x0000a538
    a4c0:	0000a5b4 	.word	0x0000a5b4
    a4c4:	0000a530 	.word	0x0000a530
    a4c8:	0000a530 	.word	0x0000a530
    a4cc:	0000a604 	.word	0x0000a604
    a4d0:	0000a530 	.word	0x0000a530
    a4d4:	0000a64c 	.word	0x0000a64c
    a4d8:	0000a4e8 	.word	0x0000a4e8
    a4dc:	0000a694 	.word	0x0000a694
    a4e0:	0000a530 	.word	0x0000a530
    a4e4:	0000a6dc 	.word	0x0000a6dc
    a4e8:	e5903134 	ldr	r3, [r0, #308]
    a4ec:	e3530000 	cmp	r3, #0	; 0x0
    a4f0:	0a00000e 	beq	a530 <RemoteFocusd_InformMotorThread+0xa4>
    a4f4:	e3a0300b 	mov	r3, #11	; 0xb
    a4f8:	e3a02001 	mov	r2, #1	; 0x1
    a4fc:	e58030b0 	str	r3, [r0, #176]
    a500:	e58020a4 	str	r2, [r0, #164]
    a504:	e28410a4 	add	r1, r4, #164	; 0xa4
    a508:	e5900120 	ldr	r0, [r0, #288]
    a50c:	e2822003 	add	r2, r2, #3	; 0x3
    a510:	e2833035 	add	r3, r3, #53	; 0x35
    a514:	ebfffb30 	bl	91dc <_init+0x274>
    a518:	e3500000 	cmp	r0, #0	; 0x0
    a51c:	ba0000c7 	blt	a840 <RemoteFocusd_InformMotorThread+0x3b4>
    a520:	e59f3324 	ldr	r3, [pc, #804]	; a84c <RemoteFocusd_InformMotorThread+0x3c0>
    a524:	e3a02000 	mov	r2, #0	; 0x0
    a528:	e58420cc 	str	r2, [r4, #204]
    a52c:	e5832000 	str	r2, [r3]
    a530:	e28dd004 	add	sp, sp, #4	; 0x4
    a534:	e8bd8030 	pop	{r4, r5, pc}
    a538:	e5903134 	ldr	r3, [r0, #308]
    a53c:	e3530000 	cmp	r3, #0	; 0x0
    a540:	0afffffa 	beq	a530 <RemoteFocusd_InformMotorThread+0xa4>
    a544:	e3a03008 	mov	r3, #8	; 0x8
    a548:	e3a02001 	mov	r2, #1	; 0x1
    a54c:	e58030e4 	str	r3, [r0, #228]
    a550:	e58020d8 	str	r2, [r0, #216]
    a554:	e28410d8 	add	r1, r4, #216	; 0xd8
    a558:	e5900128 	ldr	r0, [r0, #296]
    a55c:	e2822003 	add	r2, r2, #3	; 0x3
    a560:	e2833038 	add	r3, r3, #56	; 0x38
    a564:	ebfffb1c 	bl	91dc <_init+0x274>
    a568:	e3500000 	cmp	r0, #0	; 0x0
    a56c:	ba0000ad 	blt	a828 <RemoteFocusd_InformMotorThread+0x39c>
    a570:	e59f32d4 	ldr	r3, [pc, #724]	; a84c <RemoteFocusd_InformMotorThread+0x3c0>
    a574:	e3a02001 	mov	r2, #1	; 0x1
    a578:	e5933000 	ldr	r3, [r3]
    a57c:	e3530001 	cmp	r3, #1	; 0x1
    a580:	15953020 	ldrne	r3, [r5, #32]
    a584:	e58430cc 	str	r3, [r4, #204]
    a588:	e5953004 	ldr	r3, [r5, #4]
    a58c:	e58430b0 	str	r3, [r4, #176]
    a590:	e58420a4 	str	r2, [r4, #164]
    a594:	e28410a4 	add	r1, r4, #164	; 0xa4
    a598:	e5940120 	ldr	r0, [r4, #288]
    a59c:	e2822003 	add	r2, r2, #3	; 0x3
    a5a0:	e3a03040 	mov	r3, #64	; 0x40
    a5a4:	ebfffb0c 	bl	91dc <_init+0x274>
    a5a8:	e3500000 	cmp	r0, #0	; 0x0
    a5ac:	aaffffdf 	bge	a530 <RemoteFocusd_InformMotorThread+0xa4>
    a5b0:	ea000045 	b	a6cc <RemoteFocusd_InformMotorThread+0x240>
    a5b4:	e5903134 	ldr	r3, [r0, #308]
    a5b8:	e3530000 	cmp	r3, #0	; 0x0
    a5bc:	1a00008b 	bne	a7f0 <RemoteFocusd_InformMotorThread+0x364>
    a5c0:	e5943130 	ldr	r3, [r4, #304]
    a5c4:	e3530000 	cmp	r3, #0	; 0x0
    a5c8:	0affffd8 	beq	a530 <RemoteFocusd_InformMotorThread+0xa4>
    a5cc:	e5953004 	ldr	r3, [r5, #4]
    a5d0:	e3a02000 	mov	r2, #0	; 0x0
    a5d4:	e58430e4 	str	r3, [r4, #228]
    a5d8:	e3a03001 	mov	r3, #1	; 0x1
    a5dc:	e58420f0 	str	r2, [r4, #240]
    a5e0:	e58430d8 	str	r3, [r4, #216]
    a5e4:	e28410d8 	add	r1, r4, #216	; 0xd8
    a5e8:	e5940128 	ldr	r0, [r4, #296]
    a5ec:	e2822004 	add	r2, r2, #4	; 0x4
    a5f0:	e283303f 	add	r3, r3, #63	; 0x3f
    a5f4:	ebfffaf8 	bl	91dc <_init+0x274>
    a5f8:	e3500000 	cmp	r0, #0	; 0x0
    a5fc:	aaffffcb 	bge	a530 <RemoteFocusd_InformMotorThread+0xa4>
    a600:	ea000051 	b	a74c <RemoteFocusd_InformMotorThread+0x2c0>
    a604:	e5903134 	ldr	r3, [r0, #308]
    a608:	e3530000 	cmp	r3, #0	; 0x0
    a60c:	1a000069 	bne	a7b8 <RemoteFocusd_InformMotorThread+0x32c>
    a610:	e5943130 	ldr	r3, [r4, #304]
    a614:	e3530000 	cmp	r3, #0	; 0x0
    a618:	0affffc4 	beq	a530 <RemoteFocusd_InformMotorThread+0xa4>
    a61c:	e5953004 	ldr	r3, [r5, #4]
    a620:	e3a02001 	mov	r2, #1	; 0x1
    a624:	e58430e4 	str	r3, [r4, #228]
    a628:	e58420d8 	str	r2, [r4, #216]
    a62c:	e28410d8 	add	r1, r4, #216	; 0xd8
    a630:	e5940128 	ldr	r0, [r4, #296]
    a634:	e2822003 	add	r2, r2, #3	; 0x3
    a638:	e3a03040 	mov	r3, #64	; 0x40
    a63c:	ebfffae6 	bl	91dc <_init+0x274>
    a640:	e3500000 	cmp	r0, #0	; 0x0
    a644:	aaffffb9 	bge	a530 <RemoteFocusd_InformMotorThread+0xa4>
    a648:	ea00003f 	b	a74c <RemoteFocusd_InformMotorThread+0x2c0>
    a64c:	e5903134 	ldr	r3, [r0, #308]
    a650:	e3530000 	cmp	r3, #0	; 0x0
    a654:	0affffb5 	beq	a530 <RemoteFocusd_InformMotorThread+0xa4>
    a658:	e3a0300a 	mov	r3, #10	; 0xa
    a65c:	e3a05001 	mov	r5, #1	; 0x1
    a660:	e58030b0 	str	r3, [r0, #176]
    a664:	e58050a4 	str	r5, [r0, #164]
    a668:	e28410a4 	add	r1, r4, #164	; 0xa4
    a66c:	e5900120 	ldr	r0, [r0, #288]
    a670:	e3a02004 	mov	r2, #4	; 0x4
    a674:	e2833036 	add	r3, r3, #54	; 0x36
    a678:	ebfffad7 	bl	91dc <_init+0x274>
    a67c:	e3500000 	cmp	r0, #0	; 0x0
    a680:	ba00006b 	blt	a834 <RemoteFocusd_InformMotorThread+0x3a8>
    a684:	e59f31c0 	ldr	r3, [pc, #448]	; a84c <RemoteFocusd_InformMotorThread+0x3c0>
    a688:	e58450cc 	str	r5, [r4, #204]
    a68c:	e5835000 	str	r5, [r3]
    a690:	eaffffa6 	b	a530 <RemoteFocusd_InformMotorThread+0xa4>
    a694:	e5903134 	ldr	r3, [r0, #308]
    a698:	e3530000 	cmp	r3, #0	; 0x0
    a69c:	0affffa3 	beq	a530 <RemoteFocusd_InformMotorThread+0xa4>
    a6a0:	e3a0300c 	mov	r3, #12	; 0xc
    a6a4:	e3a02001 	mov	r2, #1	; 0x1
    a6a8:	e58030b0 	str	r3, [r0, #176]
    a6ac:	e58020a4 	str	r2, [r0, #164]
    a6b0:	e28010a4 	add	r1, r0, #164	; 0xa4
    a6b4:	e2822003 	add	r2, r2, #3	; 0x3
    a6b8:	e5900120 	ldr	r0, [r0, #288]
    a6bc:	e2833034 	add	r3, r3, #52	; 0x34
    a6c0:	ebfffac5 	bl	91dc <_init+0x274>
    a6c4:	e3500000 	cmp	r0, #0	; 0x0
    a6c8:	aaffff98 	bge	a530 <RemoteFocusd_InformMotorThread+0xa4>
    a6cc:	e59f017c 	ldr	r0, [pc, #380]	; a850 <RemoteFocusd_InformMotorThread+0x3c4>
    a6d0:	e28dd004 	add	sp, sp, #4	; 0x4
    a6d4:	e8bd4030 	pop	{r4, r5, lr}
    a6d8:	eafffac5 	b	91f4 <_init+0x28c>
    a6dc:	e5903134 	ldr	r3, [r0, #308]
    a6e0:	e3530000 	cmp	r3, #0	; 0x0
    a6e4:	0affff91 	beq	a530 <RemoteFocusd_InformMotorThread+0xa4>
    a6e8:	e3a0200e 	mov	r2, #14	; 0xe
    a6ec:	e5913014 	ldr	r3, [r1, #20]
    a6f0:	e58020b0 	str	r2, [r0, #176]
    a6f4:	e242200d 	sub	r2, r2, #13	; 0xd
    a6f8:	e58030c0 	str	r3, [r0, #192]
    a6fc:	eaffffa3 	b	a590 <RemoteFocusd_InformMotorThread+0x104>
    a700:	e5903130 	ldr	r3, [r0, #304]
    a704:	e3530000 	cmp	r3, #0	; 0x0
    a708:	0affff88 	beq	a530 <RemoteFocusd_InformMotorThread+0xa4>
    a70c:	e5953010 	ldr	r3, [r5, #16]
    a710:	e595200c 	ldr	r2, [r5, #12]
    a714:	e5911008 	ldr	r1, [r1, #8]
    a718:	e58030f0 	str	r3, [r0, #240]
    a71c:	e3a03001 	mov	r3, #1	; 0x1
    a720:	e58020ec 	str	r2, [r0, #236]
    a724:	e58010e8 	str	r1, [r0, #232]
    a728:	e58030d8 	str	r3, [r0, #216]
    a72c:	e580c0e4 	str	ip, [r0, #228]
    a730:	e28010d8 	add	r1, r0, #216	; 0xd8
    a734:	e3a02004 	mov	r2, #4	; 0x4
    a738:	e5900128 	ldr	r0, [r0, #296]
    a73c:	e283303f 	add	r3, r3, #63	; 0x3f
    a740:	ebfffaa5 	bl	91dc <_init+0x274>
    a744:	e3500000 	cmp	r0, #0	; 0x0
    a748:	aaffff78 	bge	a530 <RemoteFocusd_InformMotorThread+0xa4>
    a74c:	e59f0100 	ldr	r0, [pc, #256]	; a854 <RemoteFocusd_InformMotorThread+0x3c8>
    a750:	e28dd004 	add	sp, sp, #4	; 0x4
    a754:	e8bd4030 	pop	{r4, r5, lr}
    a758:	eafffaa5 	b	91f4 <_init+0x28c>
    a75c:	e5903134 	ldr	r3, [r0, #308]
    a760:	e3530000 	cmp	r3, #0	; 0x0
    a764:	0affff71 	beq	a530 <RemoteFocusd_InformMotorThread+0xa4>
    a768:	e5953010 	ldr	r3, [r5, #16]
    a76c:	e595200c 	ldr	r2, [r5, #12]
    a770:	e5911008 	ldr	r1, [r1, #8]
    a774:	e58030bc 	str	r3, [r0, #188]
    a778:	e3a03001 	mov	r3, #1	; 0x1
    a77c:	e58020b8 	str	r2, [r0, #184]
    a780:	e58010b4 	str	r1, [r0, #180]
    a784:	e58030a4 	str	r3, [r0, #164]
    a788:	e580c0b0 	str	ip, [r0, #176]
    a78c:	e28010a4 	add	r1, r0, #164	; 0xa4
    a790:	e3a02004 	mov	r2, #4	; 0x4
    a794:	e5900120 	ldr	r0, [r0, #288]
    a798:	e283303f 	add	r3, r3, #63	; 0x3f
    a79c:	ebfffa8e 	bl	91dc <_init+0x274>
    a7a0:	e3500000 	cmp	r0, #0	; 0x0
    a7a4:	aaffff61 	bge	a530 <RemoteFocusd_InformMotorThread+0xa4>
    a7a8:	e59f00a8 	ldr	r0, [pc, #168]	; a858 <RemoteFocusd_InformMotorThread+0x3cc>
    a7ac:	e28dd004 	add	sp, sp, #4	; 0x4
    a7b0:	e8bd4030 	pop	{r4, r5, lr}
    a7b4:	eafffa8e 	b	91f4 <_init+0x28c>
    a7b8:	e3a03008 	mov	r3, #8	; 0x8
    a7bc:	e3a02001 	mov	r2, #1	; 0x1
    a7c0:	e58030b0 	str	r3, [r0, #176]
    a7c4:	e58020a4 	str	r2, [r0, #164]
    a7c8:	e28410a4 	add	r1, r4, #164	; 0xa4
    a7cc:	e5900120 	ldr	r0, [r0, #288]
    a7d0:	e2822003 	add	r2, r2, #3	; 0x3
    a7d4:	e2833038 	add	r3, r3, #56	; 0x38
    a7d8:	ebfffa7f 	bl	91dc <_init+0x274>
    a7dc:	e3500000 	cmp	r0, #0	; 0x0
    a7e0:	aaffff8a 	bge	a610 <RemoteFocusd_InformMotorThread+0x184>
    a7e4:	e59f0064 	ldr	r0, [pc, #100]	; a850 <RemoteFocusd_InformMotorThread+0x3c4>
    a7e8:	ebfffa81 	bl	91f4 <_init+0x28c>
    a7ec:	eaffff87 	b	a610 <RemoteFocusd_InformMotorThread+0x184>
    a7f0:	e3a03005 	mov	r3, #5	; 0x5
    a7f4:	e3a02001 	mov	r2, #1	; 0x1
    a7f8:	e58030b0 	str	r3, [r0, #176]
    a7fc:	e58020a4 	str	r2, [r0, #164]
    a800:	e28410a4 	add	r1, r4, #164	; 0xa4
    a804:	e5900120 	ldr	r0, [r0, #288]
    a808:	e2822003 	add	r2, r2, #3	; 0x3
    a80c:	e283303b 	add	r3, r3, #59	; 0x3b
    a810:	ebfffa71 	bl	91dc <_init+0x274>
    a814:	e3500000 	cmp	r0, #0	; 0x0
    a818:	aaffff68 	bge	a5c0 <RemoteFocusd_InformMotorThread+0x134>
    a81c:	e59f002c 	ldr	r0, [pc, #44]	; a850 <RemoteFocusd_InformMotorThread+0x3c4>
    a820:	ebfffa73 	bl	91f4 <_init+0x28c>
    a824:	eaffff65 	b	a5c0 <RemoteFocusd_InformMotorThread+0x134>
    a828:	e59f0024 	ldr	r0, [pc, #36]	; a854 <RemoteFocusd_InformMotorThread+0x3c8>
    a82c:	ebfffa70 	bl	91f4 <_init+0x28c>
    a830:	eaffff4e 	b	a570 <RemoteFocusd_InformMotorThread+0xe4>
    a834:	e59f0014 	ldr	r0, [pc, #20]	; a850 <RemoteFocusd_InformMotorThread+0x3c4>
    a838:	ebfffa6d 	bl	91f4 <_init+0x28c>
    a83c:	eaffff90 	b	a684 <RemoteFocusd_InformMotorThread+0x1f8>
    a840:	e59f0008 	ldr	r0, [pc, #8]	; a850 <RemoteFocusd_InformMotorThread+0x3c4>
    a844:	ebfffa6a 	bl	91f4 <_init+0x28c>
    a848:	eaffff34 	b	a520 <RemoteFocusd_InformMotorThread+0x94>
    a84c:	00017630 	.word	0x00017630
    a850:	0000e590 	.word	0x0000e590
    a854:	0000e614 	.word	0x0000e614
    a858:	0000e734 	.word	0x0000e734

0000a85c <RemoteFocusd_ProcessPostCommand>:
    a85c:	e92d4030 	push	{r4, r5, lr}
    a860:	e2504000 	subs	r4, r0, #0	; 0x0
    a864:	e24dd004 	sub	sp, sp, #4	; 0x4
    a868:	13a05000 	movne	r5, #0	; 0x0
    a86c:	1a000005 	bne	a888 <RemoteFocusd_ProcessPostCommand+0x2c>
    a870:	ea000008 	b	a898 <RemoteFocusd_ProcessPostCommand+0x3c>
    a874:	e7d53004 	ldrb	r3, [r5, r4]
    a878:	e353002b 	cmp	r3, #43	; 0x2b
    a87c:	0243300b 	subeq	r3, r3, #11	; 0xb
    a880:	07c53004 	strbeq	r3, [r5, r4]
    a884:	e2855001 	add	r5, r5, #1	; 0x1
    a888:	e1a00004 	mov	r0, r4
    a88c:	ebfffa25 	bl	9128 <_init+0x1c0>
    a890:	e1500005 	cmp	r0, r5
    a894:	8afffff6 	bhi	a874 <RemoteFocusd_ProcessPostCommand+0x18>
    a898:	e28dd004 	add	sp, sp, #4	; 0x4
    a89c:	e8bd8030 	pop	{r4, r5, pc}

0000a8a0 <RemoteFocusd_InterpretClientCommand>:
    a8a0:	e92d40f0 	push	{r4, r5, r6, r7, lr}
    a8a4:	e1a04001 	mov	r4, r1
    a8a8:	e24dd004 	sub	sp, sp, #4	; 0x4
    a8ac:	e1a07000 	mov	r7, r0
    a8b0:	e1a05002 	mov	r5, r2
    a8b4:	e1a00001 	mov	r0, r1
    a8b8:	e3a02008 	mov	r2, #8	; 0x8
    a8bc:	e59f12c4 	ldr	r1, [pc, #708]	; ab88 <RemoteFocusd_InterpretClientCommand+0x2e8>
    a8c0:	ebfffa54 	bl	9218 <_init+0x2b0>
    a8c4:	e3500000 	cmp	r0, #0	; 0x0
    a8c8:	1a00000b 	bne	a8fc <RemoteFocusd_InterpretClientCommand+0x5c>
    a8cc:	e59f12b8 	ldr	r1, [pc, #696]	; ab8c <RemoteFocusd_InterpretClientCommand+0x2ec>
    a8d0:	e1a00005 	mov	r0, r5
    a8d4:	e3a02004 	mov	r2, #4	; 0x4
    a8d8:	ebfffa4e 	bl	9218 <_init+0x2b0>
    a8dc:	e3500000 	cmp	r0, #0	; 0x0
    a8e0:	03a03001 	moveq	r3, #1	; 0x1
    a8e4:	01a01000 	moveq	r1, r0
    a8e8:	05873000 	streq	r3, [r7]
    a8ec:	1a000030 	bne	a9b4 <RemoteFocusd_InterpretClientCommand+0x114>
    a8f0:	e1a00001 	mov	r0, r1
    a8f4:	e28dd004 	add	sp, sp, #4	; 0x4
    a8f8:	e8bd80f0 	pop	{r4, r5, r6, r7, pc}
    a8fc:	e1a00004 	mov	r0, r4
    a900:	e59f1288 	ldr	r1, [pc, #648]	; ab90 <RemoteFocusd_InterpretClientCommand+0x2f0>
    a904:	e3a02009 	mov	r2, #9	; 0x9
    a908:	ebfffa42 	bl	9218 <_init+0x2b0>
    a90c:	e3500000 	cmp	r0, #0	; 0x0
    a910:	1a00001a 	bne	a980 <RemoteFocusd_InterpretClientCommand+0xe0>
    a914:	e59f1278 	ldr	r1, [pc, #632]	; ab94 <RemoteFocusd_InterpretClientCommand+0x2f4>
    a918:	e1a00005 	mov	r0, r5
    a91c:	e3a02007 	mov	r2, #7	; 0x7
    a920:	ebfffa3c 	bl	9218 <_init+0x2b0>
    a924:	e3500000 	cmp	r0, #0	; 0x0
    a928:	01a01000 	moveq	r1, r0
    a92c:	05870004 	streq	r0, [r7, #4]
    a930:	0affffee 	beq	a8f0 <RemoteFocusd_InterpretClientCommand+0x50>
    a934:	e59f125c 	ldr	r1, [pc, #604]	; ab98 <RemoteFocusd_InterpretClientCommand+0x2f8>
    a938:	e1a00005 	mov	r0, r5
    a93c:	e3a02008 	mov	r2, #8	; 0x8
    a940:	ebfffa34 	bl	9218 <_init+0x2b0>
    a944:	e3500000 	cmp	r0, #0	; 0x0
    a948:	03a03001 	moveq	r3, #1	; 0x1
    a94c:	01a01000 	moveq	r1, r0
    a950:	05873004 	streq	r3, [r7, #4]
    a954:	0affffe5 	beq	a8f0 <RemoteFocusd_InterpretClientCommand+0x50>
    a958:	e59f123c 	ldr	r1, [pc, #572]	; ab9c <RemoteFocusd_InterpretClientCommand+0x2fc>
    a95c:	e1a00005 	mov	r0, r5
    a960:	e3a02006 	mov	r2, #6	; 0x6
    a964:	ebfffa2b 	bl	9218 <_init+0x2b0>
    a968:	e3500000 	cmp	r0, #0	; 0x0
    a96c:	03a03002 	moveq	r3, #2	; 0x2
    a970:	01a01000 	moveq	r1, r0
    a974:	05873004 	streq	r3, [r7, #4]
    a978:	1a000009 	bne	a9a4 <RemoteFocusd_InterpretClientCommand+0x104>
    a97c:	eaffffdb 	b	a8f0 <RemoteFocusd_InterpretClientCommand+0x50>
    a980:	e1a00004 	mov	r0, r4
    a984:	e59f1214 	ldr	r1, [pc, #532]	; aba0 <RemoteFocusd_InterpretClientCommand+0x300>
    a988:	e3a02005 	mov	r2, #5	; 0x5
    a98c:	ebfffa21 	bl	9218 <_init+0x2b0>
    a990:	e2506000 	subs	r6, r0, #0	; 0x0
    a994:	1a000058 	bne	aafc <RemoteFocusd_InterpretClientCommand+0x25c>
    a998:	e5d53000 	ldrb	r3, [r5]
    a99c:	e3530000 	cmp	r3, #0	; 0x0
    a9a0:	1a000070 	bne	ab68 <RemoteFocusd_InterpretClientCommand+0x2c8>
    a9a4:	e59f01f8 	ldr	r0, [pc, #504]	; aba4 <RemoteFocusd_InterpretClientCommand+0x304>
    a9a8:	ebfffa11 	bl	91f4 <_init+0x28c>
    a9ac:	e3e01000 	mvn	r1, #0	; 0x0
    a9b0:	eaffffce 	b	a8f0 <RemoteFocusd_InterpretClientCommand+0x50>
    a9b4:	e59f11ec 	ldr	r1, [pc, #492]	; aba8 <RemoteFocusd_InterpretClientCommand+0x308>
    a9b8:	e1a00005 	mov	r0, r5
    a9bc:	e3a02005 	mov	r2, #5	; 0x5
    a9c0:	ebfffa14 	bl	9218 <_init+0x2b0>
    a9c4:	e3500000 	cmp	r0, #0	; 0x0
    a9c8:	03a03002 	moveq	r3, #2	; 0x2
    a9cc:	01a01000 	moveq	r1, r0
    a9d0:	05873000 	streq	r3, [r7]
    a9d4:	0affffc5 	beq	a8f0 <RemoteFocusd_InterpretClientCommand+0x50>
    a9d8:	e59f11cc 	ldr	r1, [pc, #460]	; abac <RemoteFocusd_InterpretClientCommand+0x30c>
    a9dc:	e1a00005 	mov	r0, r5
    a9e0:	e3a02004 	mov	r2, #4	; 0x4
    a9e4:	ebfffa0b 	bl	9218 <_init+0x2b0>
    a9e8:	e3500000 	cmp	r0, #0	; 0x0
    a9ec:	03a03003 	moveq	r3, #3	; 0x3
    a9f0:	01a01000 	moveq	r1, r0
    a9f4:	05873000 	streq	r3, [r7]
    a9f8:	0affffbc 	beq	a8f0 <RemoteFocusd_InterpretClientCommand+0x50>
    a9fc:	e59f11ac 	ldr	r1, [pc, #428]	; abb0 <RemoteFocusd_InterpretClientCommand+0x310>
    aa00:	e1a00005 	mov	r0, r5
    aa04:	e3a02004 	mov	r2, #4	; 0x4
    aa08:	ebfffa02 	bl	9218 <_init+0x2b0>
    aa0c:	e3500000 	cmp	r0, #0	; 0x0
    aa10:	03a03004 	moveq	r3, #4	; 0x4
    aa14:	01a01000 	moveq	r1, r0
    aa18:	05873000 	streq	r3, [r7]
    aa1c:	0affffb3 	beq	a8f0 <RemoteFocusd_InterpretClientCommand+0x50>
    aa20:	e59f118c 	ldr	r1, [pc, #396]	; abb4 <RemoteFocusd_InterpretClientCommand+0x314>
    aa24:	e1a00005 	mov	r0, r5
    aa28:	e3a0200b 	mov	r2, #11	; 0xb
    aa2c:	ebfff9f9 	bl	9218 <_init+0x2b0>
    aa30:	e3500000 	cmp	r0, #0	; 0x0
    aa34:	03a03005 	moveq	r3, #5	; 0x5
    aa38:	01a01000 	moveq	r1, r0
    aa3c:	05873000 	streq	r3, [r7]
    aa40:	0affffaa 	beq	a8f0 <RemoteFocusd_InterpretClientCommand+0x50>
    aa44:	e59f116c 	ldr	r1, [pc, #364]	; abb8 <RemoteFocusd_InterpretClientCommand+0x318>
    aa48:	e1a00005 	mov	r0, r5
    aa4c:	e3a02009 	mov	r2, #9	; 0x9
    aa50:	ebfff9f0 	bl	9218 <_init+0x2b0>
    aa54:	e3500000 	cmp	r0, #0	; 0x0
    aa58:	03a03006 	moveq	r3, #6	; 0x6
    aa5c:	01a01000 	moveq	r1, r0
    aa60:	05873000 	streq	r3, [r7]
    aa64:	0affffa1 	beq	a8f0 <RemoteFocusd_InterpretClientCommand+0x50>
    aa68:	e59f114c 	ldr	r1, [pc, #332]	; abbc <RemoteFocusd_InterpretClientCommand+0x31c>
    aa6c:	e1a00005 	mov	r0, r5
    aa70:	e3a02008 	mov	r2, #8	; 0x8
    aa74:	ebfff9e7 	bl	9218 <_init+0x2b0>
    aa78:	e3500000 	cmp	r0, #0	; 0x0
    aa7c:	03a03007 	moveq	r3, #7	; 0x7
    aa80:	01a01000 	moveq	r1, r0
    aa84:	05873000 	streq	r3, [r7]
    aa88:	0affff98 	beq	a8f0 <RemoteFocusd_InterpretClientCommand+0x50>
    aa8c:	e59f112c 	ldr	r1, [pc, #300]	; abc0 <RemoteFocusd_InterpretClientCommand+0x320>
    aa90:	e1a00005 	mov	r0, r5
    aa94:	e3a02004 	mov	r2, #4	; 0x4
    aa98:	ebfff9de 	bl	9218 <_init+0x2b0>
    aa9c:	e3500000 	cmp	r0, #0	; 0x0
    aaa0:	03a03008 	moveq	r3, #8	; 0x8
    aaa4:	01a01000 	moveq	r1, r0
    aaa8:	05873000 	streq	r3, [r7]
    aaac:	0affff8f 	beq	a8f0 <RemoteFocusd_InterpretClientCommand+0x50>
    aab0:	e59f110c 	ldr	r1, [pc, #268]	; abc4 <RemoteFocusd_InterpretClientCommand+0x324>
    aab4:	e1a00005 	mov	r0, r5
    aab8:	e3a02008 	mov	r2, #8	; 0x8
    aabc:	ebfff9d5 	bl	9218 <_init+0x2b0>
    aac0:	e3500000 	cmp	r0, #0	; 0x0
    aac4:	03a0300a 	moveq	r3, #10	; 0xa
    aac8:	01a01000 	moveq	r1, r0
    aacc:	05873000 	streq	r3, [r7]
    aad0:	0affff86 	beq	a8f0 <RemoteFocusd_InterpretClientCommand+0x50>
    aad4:	e59f10ec 	ldr	r1, [pc, #236]	; abc8 <RemoteFocusd_InterpretClientCommand+0x328>
    aad8:	e1a00005 	mov	r0, r5
    aadc:	e3a0200a 	mov	r2, #10	; 0xa
    aae0:	ebfff9cc 	bl	9218 <_init+0x2b0>
    aae4:	e3500000 	cmp	r0, #0	; 0x0
    aae8:	03a0300b 	moveq	r3, #11	; 0xb
    aaec:	01a01000 	moveq	r1, r0
    aaf0:	05873000 	streq	r3, [r7]
    aaf4:	1affffaa 	bne	a9a4 <RemoteFocusd_InterpretClientCommand+0x104>
    aaf8:	eaffff7c 	b	a8f0 <RemoteFocusd_InterpretClientCommand+0x50>
    aafc:	e1a00004 	mov	r0, r4
    ab00:	e59f10c4 	ldr	r1, [pc, #196]	; abcc <RemoteFocusd_InterpretClientCommand+0x32c>
    ab04:	e3a02008 	mov	r2, #8	; 0x8
    ab08:	ebfff9c2 	bl	9218 <_init+0x2b0>
    ab0c:	e2506000 	subs	r6, r0, #0	; 0x0
    ab10:	1a00000a 	bne	ab40 <RemoteFocusd_InterpretClientCommand+0x2a0>
    ab14:	e5d53000 	ldrb	r3, [r5]
    ab18:	e3530000 	cmp	r3, #0	; 0x0
    ab1c:	0affffa0 	beq	a9a4 <RemoteFocusd_InterpretClientCommand+0x104>
    ab20:	e1a01006 	mov	r1, r6
    ab24:	e1a00005 	mov	r0, r5
    ab28:	e3a0200a 	mov	r2, #10	; 0xa
    ab2c:	e1a03006 	mov	r3, r6
    ab30:	ebfff952 	bl	9080 <_init+0x118>
    ab34:	e1a01006 	mov	r1, r6
    ab38:	e587000c 	str	r0, [r7, #12]
    ab3c:	eaffff6b 	b	a8f0 <RemoteFocusd_InterpretClientCommand+0x50>
    ab40:	e59f1088 	ldr	r1, [pc, #136]	; abd0 <RemoteFocusd_InterpretClientCommand+0x330>
    ab44:	e1a00004 	mov	r0, r4
    ab48:	e3a02004 	mov	r2, #4	; 0x4
    ab4c:	ebfff9b1 	bl	9218 <_init+0x2b0>
    ab50:	e3500000 	cmp	r0, #0	; 0x0
    ab54:	03a03001 	moveq	r3, #1	; 0x1
    ab58:	01a01000 	moveq	r1, r0
    ab5c:	0587301c 	streq	r3, [r7, #28]
    ab60:	1affff8f 	bne	a9a4 <RemoteFocusd_InterpretClientCommand+0x104>
    ab64:	eaffff61 	b	a8f0 <RemoteFocusd_InterpretClientCommand+0x50>
    ab68:	e1a01006 	mov	r1, r6
    ab6c:	e1a00005 	mov	r0, r5
    ab70:	e3a0200a 	mov	r2, #10	; 0xa
    ab74:	e1a03006 	mov	r3, r6
    ab78:	ebfff940 	bl	9080 <_init+0x118>
    ab7c:	e1a01006 	mov	r1, r6
    ab80:	e5870008 	str	r0, [r7, #8]
    ab84:	eaffff59 	b	a8f0 <RemoteFocusd_InterpretClientCommand+0x50>
    ab88:	0000e764 	.word	0x0000e764
    ab8c:	0000e770 	.word	0x0000e770
    ab90:	0000e7d4 	.word	0x0000e7d4
    ab94:	0000e7e0 	.word	0x0000e7e0
    ab98:	0000e7e8 	.word	0x0000e7e8
    ab9c:	0000e7f4 	.word	0x0000e7f4
    aba0:	0000e7fc 	.word	0x0000e7fc
    aba4:	0000e520 	.word	0x0000e520
    aba8:	0000e778 	.word	0x0000e778
    abac:	0000e780 	.word	0x0000e780
    abb0:	0000e788 	.word	0x0000e788
    abb4:	0000e790 	.word	0x0000e790
    abb8:	0000e79c 	.word	0x0000e79c
    abbc:	0000e7a8 	.word	0x0000e7a8
    abc0:	0000e7b4 	.word	0x0000e7b4
    abc4:	0000e7bc 	.word	0x0000e7bc
    abc8:	0000e7c8 	.word	0x0000e7c8
    abcc:	0000e804 	.word	0x0000e804
    abd0:	0000e810 	.word	0x0000e810

0000abd4 <RemoteFocusd_ParseClientCommand>:
    abd4:	e92d4ff0 	push	{r4, r5, r6, r7, r8, r9, sl, fp, lr}
    abd8:	e251a000 	subs	sl, r1, #0	; 0x0
    abdc:	e24dd08c 	sub	sp, sp, #140	; 0x8c
    abe0:	e1a09002 	mov	r9, r2
    abe4:	e282b004 	add	fp, r2, #4	; 0x4
    abe8:	1a000004 	bne	ac00 <RemoteFocusd_ParseClientCommand+0x2c>
    abec:	e59f0134 	ldr	r0, [pc, #308]	; ad28 <RemoteFocusd_ParseClientCommand+0x154>
    abf0:	ebfff97f 	bl	91f4 <_init+0x28c>
    abf4:	e3e00000 	mvn	r0, #0	; 0x0
    abf8:	e28dd08c 	add	sp, sp, #140	; 0x8c
    abfc:	e8bd8ff0 	pop	{r4, r5, r6, r7, r8, r9, sl, fp, pc}
    ac00:	e5da3000 	ldrb	r3, [sl]
    ac04:	e3530000 	cmp	r3, #0	; 0x0
    ac08:	0afffff7 	beq	abec <RemoteFocusd_ParseClientCommand+0x18>
    ac0c:	e1a0400a 	mov	r4, sl
    ac10:	ea000015 	b	ac6c <RemoteFocusd_ParseClientCommand+0x98>
    ac14:	ebfff94c 	bl	914c <_init+0x1e4>
    ac18:	e2851001 	add	r1, r5, #1	; 0x1
    ac1c:	e28d2088 	add	r2, sp, #136	; 0x88
    ac20:	e0823006 	add	r3, r2, r6
    ac24:	e0614007 	rsb	r4, r1, r7
    ac28:	e1a02004 	mov	r2, r4
    ac2c:	e5438040 	strb	r8, [r3, #-64]
    ac30:	e28d0008 	add	r0, sp, #8	; 0x8
    ac34:	ebfff944 	bl	914c <_init+0x1e4>
    ac38:	e28d2088 	add	r2, sp, #136	; 0x88
    ac3c:	e0823004 	add	r3, r2, r4
    ac40:	e5438080 	strb	r8, [r3, #-128]
    ac44:	e1a0000b 	mov	r0, fp
    ac48:	e28d1048 	add	r1, sp, #72	; 0x48
    ac4c:	e28d2008 	add	r2, sp, #8	; 0x8
    ac50:	ebffff12 	bl	a8a0 <RemoteFocusd_InterpretClientCommand>
    ac54:	e2505000 	subs	r5, r0, #0	; 0x0
    ac58:	e2874001 	add	r4, r7, #1	; 0x1
    ac5c:	1a000028 	bne	ad04 <RemoteFocusd_ParseClientCommand+0x130>
    ac60:	e59d3004 	ldr	r3, [sp, #4]
    ac64:	e3530000 	cmp	r3, #0	; 0x0
    ac68:	1a000018 	bne	acd0 <RemoteFocusd_ParseClientCommand+0xfc>
    ac6c:	e1a00004 	mov	r0, r4
    ac70:	e3a01026 	mov	r1, #38	; 0x26
    ac74:	ebfff8f2 	bl	9044 <_init+0xdc>
    ac78:	e3a02000 	mov	r2, #0	; 0x0
    ac7c:	e2507000 	subs	r7, r0, #0	; 0x0
    ac80:	e58d2004 	str	r2, [sp, #4]
    ac84:	0a000018 	beq	acec <RemoteFocusd_ParseClientCommand+0x118>
    ac88:	e3a0103d 	mov	r1, #61	; 0x3d
    ac8c:	e1a00004 	mov	r0, r4
    ac90:	ebfff8eb 	bl	9044 <_init+0xdc>
    ac94:	e2505000 	subs	r5, r0, #0	; 0x0
    ac98:	e0646005 	rsb	r6, r4, r5
    ac9c:	e1a01004 	mov	r1, r4
    aca0:	e3a08000 	mov	r8, #0	; 0x0
    aca4:	e1a02006 	mov	r2, r6
    aca8:	e28d0048 	add	r0, sp, #72	; 0x48
    acac:	1affffd8 	bne	ac14 <RemoteFocusd_ParseClientCommand+0x40>
    acb0:	e1a00004 	mov	r0, r4
    acb4:	ebfff91b 	bl	9128 <_init+0x1c0>
    acb8:	e1a01004 	mov	r1, r4
    acbc:	e2802001 	add	r2, r0, #1	; 0x1
    acc0:	e28d0048 	add	r0, sp, #72	; 0x48
    acc4:	ebfff8d8 	bl	902c <_init+0xc4>
    acc8:	e5cd5008 	strb	r5, [sp, #8]
    accc:	eaffffdc 	b	ac44 <RemoteFocusd_ParseClientCommand+0x70>
    acd0:	e5993004 	ldr	r3, [r9, #4]
    acd4:	e3530000 	cmp	r3, #0	; 0x0
    acd8:	1a00000d 	bne	ad14 <RemoteFocusd_ParseClientCommand+0x140>
    acdc:	e59f0048 	ldr	r0, [pc, #72]	; ad2c <RemoteFocusd_ParseClientCommand+0x158>
    ace0:	ebfff943 	bl	91f4 <_init+0x28c>
    ace4:	e3e00000 	mvn	r0, #0	; 0x0
    ace8:	eaffffc2 	b	abf8 <RemoteFocusd_ParseClientCommand+0x24>
    acec:	e1a00004 	mov	r0, r4
    acf0:	ebfff90c 	bl	9128 <_init+0x1c0>
    acf4:	e3a03001 	mov	r3, #1	; 0x1
    acf8:	e0807004 	add	r7, r0, r4
    acfc:	e58d3004 	str	r3, [sp, #4]
    ad00:	eaffffe0 	b	ac88 <RemoteFocusd_ParseClientCommand+0xb4>
    ad04:	e59f0024 	ldr	r0, [pc, #36]	; ad30 <RemoteFocusd_ParseClientCommand+0x15c>
    ad08:	ebfff939 	bl	91f4 <_init+0x28c>
    ad0c:	e3e00000 	mvn	r0, #0	; 0x0
    ad10:	eaffffb8 	b	abf8 <RemoteFocusd_ParseClientCommand+0x24>
    ad14:	e1a0100a 	mov	r1, sl
    ad18:	e59f0014 	ldr	r0, [pc, #20]	; ad34 <RemoteFocusd_ParseClientCommand+0x160>
    ad1c:	ebfff910 	bl	9164 <_init+0x1fc>
    ad20:	e1a00005 	mov	r0, r5
    ad24:	eaffffb3 	b	abf8 <RemoteFocusd_ParseClientCommand+0x24>
    ad28:	0000e818 	.word	0x0000e818
    ad2c:	0000e880 	.word	0x0000e880
    ad30:	0000e840 	.word	0x0000e840
    ad34:	0000e8ac 	.word	0x0000e8ac

0000ad38 <RemoteFocusd_ReplyParam>:
    ad38:	e92d4070 	push	{r4, r5, r6, lr}
    ad3c:	e59030b0 	ldr	r3, [r0, #176]
    ad40:	e59f006c 	ldr	r0, [pc, #108]	; adb4 <RemoteFocusd_ReplyParam+0x7c>
    ad44:	e24ddb02 	sub	sp, sp, #2048	; 0x800
    ad48:	e1520000 	cmp	r2, r0
    ad4c:	21a02000 	movcs	r2, r0
    ad50:	e59f0060 	ldr	r0, [pc, #96]	; adb8 <RemoteFocusd_ReplyParam+0x80>
    ad54:	e28d5b01 	add	r5, sp, #1024	; 0x400
    ad58:	e7902102 	ldr	r2, [r0, r2, lsl #2]
    ad5c:	e1a06001 	mov	r6, r1
    ad60:	e1a00005 	mov	r0, r5
    ad64:	e59f1050 	ldr	r1, [pc, #80]	; adbc <RemoteFocusd_ReplyParam+0x84>
    ad68:	ebfff93c 	bl	9260 <_init+0x2f8>
    ad6c:	e1a00005 	mov	r0, r5
    ad70:	ebfff8ec 	bl	9128 <_init+0x1c0>
    ad74:	e1a03005 	mov	r3, r5
    ad78:	e1a02000 	mov	r2, r0
    ad7c:	e59f103c 	ldr	r1, [pc, #60]	; adc0 <RemoteFocusd_ReplyParam+0x88>
    ad80:	e1a0000d 	mov	r0, sp
    ad84:	ebfff935 	bl	9260 <_init+0x2f8>
    ad88:	e1a0000d 	mov	r0, sp
    ad8c:	ebfff8e5 	bl	9128 <_init+0x1c0>
    ad90:	e1a0100d 	mov	r1, sp
    ad94:	e1a02000 	mov	r2, r0
    ad98:	e1a00006 	mov	r0, r6
    ad9c:	ebfff8d2 	bl	90ec <_init+0x184>
    ada0:	e1a00006 	mov	r0, r6
    ada4:	e1a0400d 	mov	r4, sp
    ada8:	ebfff8ff 	bl	91ac <_init+0x244>
    adac:	e28ddb02 	add	sp, sp, #2048	; 0x800
    adb0:	e8bd8070 	pop	{r4, r5, r6, pc}
    adb4:	00000c91 	.word	0x00000c91
    adb8:	00018a8c 	.word	0x00018a8c
    adbc:	0000e8d4 	.word	0x0000e8d4
    adc0:	0000e914 	.word	0x0000e914

0000adc4 <RemoteFocusd_ReplyStatus>:
    adc4:	e92d4ff0 	push	{r4, r5, r6, r7, r8, r9, sl, fp, lr}
    adc8:	e5903134 	ldr	r3, [r0, #308]
    adcc:	e24dde82 	sub	sp, sp, #2080	; 0x820
    add0:	e3530000 	cmp	r3, #0	; 0x0
    add4:	e24dd00c 	sub	sp, sp, #12	; 0xc
    add8:	e1a0b001 	mov	fp, r1
    addc:	0a000025 	beq	ae78 <RemoteFocusd_ReplyStatus+0xb4>
    ade0:	e5903130 	ldr	r3, [r0, #304]
    ade4:	e3530000 	cmp	r3, #0	; 0x0
    ade8:	1a000030 	bne	aeb0 <RemoteFocusd_ReplyStatus+0xec>
    adec:	e59f2120 	ldr	r2, [pc, #288]	; af14 <RemoteFocusd_ReplyStatus+0x150>
    adf0:	e59030c4 	ldr	r3, [r0, #196]
    adf4:	e59050b0 	ldr	r5, [r0, #176]
    adf8:	e5924000 	ldr	r4, [r2]
    adfc:	e590c0c8 	ldr	ip, [r0, #200]
    ae00:	e590e0a8 	ldr	lr, [r0, #168]
    ae04:	e59f110c 	ldr	r1, [pc, #268]	; af18 <RemoteFocusd_ReplyStatus+0x154>
    ae08:	e28d0e42 	add	r0, sp, #1056	; 0x420
    ae0c:	e59f2108 	ldr	r2, [pc, #264]	; af1c <RemoteFocusd_ReplyStatus+0x158>
    ae10:	e2800008 	add	r0, r0, #8	; 0x8
    ae14:	e88d5000 	stm	sp, {ip, lr}
    ae18:	e58d5008 	str	r5, [sp, #8]
    ae1c:	e58d400c 	str	r4, [sp, #12]
    ae20:	ebfff90e 	bl	9260 <_init+0x2f8>
    ae24:	e28d0e42 	add	r0, sp, #1056	; 0x420
    ae28:	e2800008 	add	r0, r0, #8	; 0x8
    ae2c:	ebfff8bd 	bl	9128 <_init+0x1c0>
    ae30:	e28d4028 	add	r4, sp, #40	; 0x28
    ae34:	e28d3e42 	add	r3, sp, #1056	; 0x420
    ae38:	e1a02000 	mov	r2, r0
    ae3c:	e2833008 	add	r3, r3, #8	; 0x8
    ae40:	e59f10d8 	ldr	r1, [pc, #216]	; af20 <RemoteFocusd_ReplyStatus+0x15c>
    ae44:	e1a00004 	mov	r0, r4
    ae48:	ebfff904 	bl	9260 <_init+0x2f8>
    ae4c:	e1a00004 	mov	r0, r4
    ae50:	ebfff8b4 	bl	9128 <_init+0x1c0>
    ae54:	e1a01004 	mov	r1, r4
    ae58:	e1a02000 	mov	r2, r0
    ae5c:	e1a0000b 	mov	r0, fp
    ae60:	ebfff8a1 	bl	90ec <_init+0x184>
    ae64:	e1a0000b 	mov	r0, fp
    ae68:	ebfff8cf 	bl	91ac <_init+0x244>
    ae6c:	e28dd02c 	add	sp, sp, #44	; 0x2c
    ae70:	e28ddb02 	add	sp, sp, #2048	; 0x800
    ae74:	e8bd8ff0 	pop	{r4, r5, r6, r7, r8, r9, sl, fp, pc}
    ae78:	e5903130 	ldr	r3, [r0, #304]
    ae7c:	e3530000 	cmp	r3, #0	; 0x0
    ae80:	0affffe7 	beq	ae24 <RemoteFocusd_ReplyStatus+0x60>
    ae84:	e59f2088 	ldr	r2, [pc, #136]	; af14 <RemoteFocusd_ReplyStatus+0x150>
    ae88:	e59030f8 	ldr	r3, [r0, #248]
    ae8c:	e59050e4 	ldr	r5, [r0, #228]
    ae90:	e5924000 	ldr	r4, [r2]
    ae94:	e590c0fc 	ldr	ip, [r0, #252]
    ae98:	e590e0e0 	ldr	lr, [r0, #224]
    ae9c:	e59f1080 	ldr	r1, [pc, #128]	; af24 <RemoteFocusd_ReplyStatus+0x160>
    aea0:	e28d0e42 	add	r0, sp, #1056	; 0x420
    aea4:	e59f207c 	ldr	r2, [pc, #124]	; af28 <RemoteFocusd_ReplyStatus+0x164>
    aea8:	e2800008 	add	r0, r0, #8	; 0x8
    aeac:	eaffffd8 	b	ae14 <RemoteFocusd_ReplyStatus+0x50>
    aeb0:	e59f305c 	ldr	r3, [pc, #92]	; af14 <RemoteFocusd_ReplyStatus+0x150>
    aeb4:	e59090b0 	ldr	r9, [r0, #176]
    aeb8:	e593a000 	ldr	sl, [r3]
    aebc:	e590c0f8 	ldr	ip, [r0, #248]
    aec0:	e590e0fc 	ldr	lr, [r0, #252]
    aec4:	e59040c4 	ldr	r4, [r0, #196]
    aec8:	e59050c8 	ldr	r5, [r0, #200]
    aecc:	e59060e0 	ldr	r6, [r0, #224]
    aed0:	e59070a8 	ldr	r7, [r0, #168]
    aed4:	e59080e4 	ldr	r8, [r0, #228]
    aed8:	e28d0e42 	add	r0, sp, #1056	; 0x420
    aedc:	e59f1048 	ldr	r1, [pc, #72]	; af2c <RemoteFocusd_ReplyStatus+0x168>
    aee0:	e59f2040 	ldr	r2, [pc, #64]	; af28 <RemoteFocusd_ReplyStatus+0x164>
    aee4:	e59f3030 	ldr	r3, [pc, #48]	; af1c <RemoteFocusd_ReplyStatus+0x158>
    aee8:	e2800008 	add	r0, r0, #8	; 0x8
    aeec:	e88d5000 	stm	sp, {ip, lr}
    aef0:	e58d4008 	str	r4, [sp, #8]
    aef4:	e58d500c 	str	r5, [sp, #12]
    aef8:	e58d6010 	str	r6, [sp, #16]
    aefc:	e58d7014 	str	r7, [sp, #20]
    af00:	e58d8018 	str	r8, [sp, #24]
    af04:	e58d901c 	str	r9, [sp, #28]
    af08:	e58da020 	str	sl, [sp, #32]
    af0c:	ebfff8d3 	bl	9260 <_init+0x2f8>
    af10:	eaffffc3 	b	ae24 <RemoteFocusd_ReplyStatus+0x60>
    af14:	00017630 	.word	0x00017630
    af18:	0000eaf4 	.word	0x0000eaf4
    af1c:	00000c92 	.word	0x00000c92
    af20:	0000e914 	.word	0x0000e914
    af24:	0000ebbc 	.word	0x0000ebbc
    af28:	00000514 	.word	0x00000514
    af2c:	0000e984 	.word	0x0000e984

0000af30 <RemoteFocusd_ReplyOKMessage>:
    af30:	e92d4030 	push	{r4, r5, lr}
    af34:	e24ddb01 	sub	sp, sp, #1024	; 0x400
    af38:	e24dd004 	sub	sp, sp, #4	; 0x4
    af3c:	e1a05000 	mov	r5, r0
    af40:	e59f1038 	ldr	r1, [pc, #56]	; af80 <RemoteFocusd_ReplyOKMessage+0x50>
    af44:	e3a0206e 	mov	r2, #110	; 0x6e
    af48:	e1a0000d 	mov	r0, sp
    af4c:	ebfff87e 	bl	914c <_init+0x1e4>
    af50:	e1a0000d 	mov	r0, sp
    af54:	ebfff873 	bl	9128 <_init+0x1c0>
    af58:	e1a0100d 	mov	r1, sp
    af5c:	e1a02000 	mov	r2, r0
    af60:	e1a00005 	mov	r0, r5
    af64:	ebfff860 	bl	90ec <_init+0x184>
    af68:	e1a00005 	mov	r0, r5
    af6c:	e1a0400d 	mov	r4, sp
    af70:	ebfff88d 	bl	91ac <_init+0x244>
    af74:	e28dd004 	add	sp, sp, #4	; 0x4
    af78:	e28ddb01 	add	sp, sp, #1024	; 0x400
    af7c:	e8bd8030 	pop	{r4, r5, pc}
    af80:	0000ec80 	.word	0x0000ec80

0000af84 <RemoteFocusd_ReplyBadRequestMsg>:
    af84:	e92d4070 	push	{r4, r5, r6, lr}
    af88:	e59f404c 	ldr	r4, [pc, #76]	; afdc <RemoteFocusd_ReplyBadRequestMsg+0x58>
    af8c:	e24dd080 	sub	sp, sp, #128	; 0x80
    af90:	e1a0c004 	mov	ip, r4
    af94:	e1a0e00d 	mov	lr, sp
    af98:	e1a06000 	mov	r6, r0
    af9c:	e8bc000f 	ldm	ip!, {r0, r1, r2, r3}
    afa0:	e8ae000f 	stmia	lr!, {r0, r1, r2, r3}
    afa4:	e89c000f 	ldm	ip, {r0, r1, r2, r3}
    afa8:	e8ae0007 	stmia	lr!, {r0, r1, r2}
    afac:	e1a0000d 	mov	r0, sp
    afb0:	e5ce3000 	strb	r3, [lr]
    afb4:	ebfff85b 	bl	9128 <_init+0x1c0>
    afb8:	e1a0100d 	mov	r1, sp
    afbc:	e1a02000 	mov	r2, r0
    afc0:	e1a00006 	mov	r0, r6
    afc4:	ebfff848 	bl	90ec <_init+0x184>
    afc8:	e1a00006 	mov	r0, r6
    afcc:	e1a0500d 	mov	r5, sp
    afd0:	ebfff875 	bl	91ac <_init+0x244>
    afd4:	e28dd080 	add	sp, sp, #128	; 0x80
    afd8:	e8bd8070 	pop	{r4, r5, r6, pc}
    afdc:	0000ecf0 	.word	0x0000ecf0

0000afe0 <RemoteFocusd_CheckLogFile>:
    afe0:	e92d4010 	push	{r4, lr}
    afe4:	e3a01000 	mov	r1, #0	; 0x0
    afe8:	e1a04000 	mov	r4, r0
    afec:	e59f00b4 	ldr	r0, [pc, #180]	; b0a8 <RemoteFocusd_CheckLogFile+0xc8>
    aff0:	ebfff840 	bl	90f8 <_init+0x190>
    aff4:	e3500000 	cmp	r0, #0	; 0x0
    aff8:	0a000004 	beq	b010 <RemoteFocusd_CheckLogFile+0x30>
    affc:	e59f00a8 	ldr	r0, [pc, #168]	; b0ac <RemoteFocusd_CheckLogFile+0xcc>
    b000:	e3a01000 	mov	r1, #0	; 0x0
    b004:	ebfff83b 	bl	90f8 <_init+0x190>
    b008:	e3500000 	cmp	r0, #0	; 0x0
    b00c:	18bd8010 	popne	{r4, pc}
    b010:	e59f0098 	ldr	r0, [pc, #152]	; b0b0 <RemoteFocusd_CheckLogFile+0xd0>
    b014:	ebfff876 	bl	91f4 <_init+0x28c>
    b018:	e5943134 	ldr	r3, [r4, #308]
    b01c:	e3530000 	cmp	r3, #0	; 0x0
    b020:	1a000012 	bne	b070 <RemoteFocusd_CheckLogFile+0x90>
    b024:	e5943130 	ldr	r3, [r4, #304]
    b028:	e3530000 	cmp	r3, #0	; 0x0
    b02c:	08bd8010 	popeq	{r4, pc}
    b030:	e3a03005 	mov	r3, #5	; 0x5
    b034:	e58430e4 	str	r3, [r4, #228]
    b038:	e3a02000 	mov	r2, #0	; 0x0
    b03c:	e2433004 	sub	r3, r3, #4	; 0x4
    b040:	e58420f0 	str	r2, [r4, #240]
    b044:	e58430d8 	str	r3, [r4, #216]
    b048:	e28410d8 	add	r1, r4, #216	; 0xd8
    b04c:	e5940128 	ldr	r0, [r4, #296]
    b050:	e2822004 	add	r2, r2, #4	; 0x4
    b054:	e283303f 	add	r3, r3, #63	; 0x3f
    b058:	ebfff85f 	bl	91dc <_init+0x274>
    b05c:	e3500000 	cmp	r0, #0	; 0x0
    b060:	a8bd8010 	popge	{r4, pc}
    b064:	e59f0048 	ldr	r0, [pc, #72]	; b0b4 <RemoteFocusd_CheckLogFile+0xd4>
    b068:	e8bd4010 	pop	{r4, lr}
    b06c:	eafff860 	b	91f4 <_init+0x28c>
    b070:	e3a03005 	mov	r3, #5	; 0x5
    b074:	e3a02001 	mov	r2, #1	; 0x1
    b078:	e58430b0 	str	r3, [r4, #176]
    b07c:	e58420a4 	str	r2, [r4, #164]
    b080:	e5940120 	ldr	r0, [r4, #288]
    b084:	e28410a4 	add	r1, r4, #164	; 0xa4
    b088:	e2822003 	add	r2, r2, #3	; 0x3
    b08c:	e283303b 	add	r3, r3, #59	; 0x3b
    b090:	ebfff851 	bl	91dc <_init+0x274>
    b094:	e3500000 	cmp	r0, #0	; 0x0
    b098:	aaffffe1 	bge	b024 <RemoteFocusd_CheckLogFile+0x44>
    b09c:	e59f0014 	ldr	r0, [pc, #20]	; b0b8 <RemoteFocusd_CheckLogFile+0xd8>
    b0a0:	ebfff853 	bl	91f4 <_init+0x28c>
    b0a4:	eaffffde 	b	b024 <RemoteFocusd_CheckLogFile+0x44>
    b0a8:	0000ed10 	.word	0x0000ed10
    b0ac:	0000ed3c 	.word	0x0000ed3c
    b0b0:	0000ed68 	.word	0x0000ed68
    b0b4:	0000e614 	.word	0x0000e614
    b0b8:	0000e590 	.word	0x0000e590

0000b0bc <RemoteFocusd_FdCgiCommandHandler>:
    b0bc:	e92d41f0 	push	{r4, r5, r6, r7, r8, lr}
    b0c0:	e24dde4b 	sub	sp, sp, #1200	; 0x4b0
    b0c4:	e5905008 	ldr	r5, [r0, #8]
    b0c8:	e28d7d12 	add	r7, sp, #1152	; 0x480
    b0cc:	e2877004 	add	r7, r7, #4	; 0x4
    b0d0:	e28d1e4a 	add	r1, sp, #1184	; 0x4a0
    b0d4:	e3a04000 	mov	r4, #0	; 0x0
    b0d8:	e1a06000 	mov	r6, r0
    b0dc:	e281100c 	add	r1, r1, #12	; 0xc
    b0e0:	e1a00005 	mov	r0, r5
    b0e4:	e1a02007 	mov	r2, r7
    b0e8:	e58d44ac 	str	r4, [sp, #1196]
    b0ec:	e58d4484 	str	r4, [sp, #1156]
    b0f0:	e58d4488 	str	r4, [sp, #1160]
    b0f4:	e58d448c 	str	r4, [sp, #1164]
    b0f8:	e58d4490 	str	r4, [sp, #1168]
    b0fc:	e58d4494 	str	r4, [sp, #1172]
    b100:	e58d4498 	str	r4, [sp, #1176]
    b104:	e58d449c 	str	r4, [sp, #1180]
    b108:	e58d44a0 	str	r4, [sp, #1184]
    b10c:	e58d44a4 	str	r4, [sp, #1188]
    b110:	e58d44a8 	str	r4, [sp, #1192]
    b114:	ebfff7e5 	bl	90b0 <_init+0x148>
    b118:	e1500004 	cmp	r0, r4
    b11c:	0a000018 	beq	b184 <RemoteFocusd_FdCgiCommandHandler+0xc8>
    b120:	e59f01c4 	ldr	r0, [pc, #452]	; b2ec <RemoteFocusd_FdCgiCommandHandler+0x230>
    b124:	ebfff832 	bl	91f4 <_init+0x28c>
    b128:	e5963010 	ldr	r3, [r6, #16]
    b12c:	e3a02001 	mov	r2, #1	; 0x1
    b130:	e203101f 	and	r1, r3, #31	; 0x1f
    b134:	e1a02112 	lsl	r2, r2, r1
    b138:	e1a032a3 	lsr	r3, r3, #5
    b13c:	e1a03103 	lsl	r3, r3, #2
    b140:	e0833006 	add	r3, r3, r6
    b144:	e5931018 	ldr	r1, [r3, #24]
    b148:	e1e02002 	mvn	r2, r2
    b14c:	e0022001 	and	r2, r2, r1
    b150:	e5832018 	str	r2, [r3, #24]
    b154:	e5960008 	ldr	r0, [r6, #8]
    b158:	ebfff7a1 	bl	8fe4 <_init+0x7c>
    b15c:	e1a00006 	mov	r0, r6
    b160:	ebfff9fc 	bl	9958 <RemoteFocusd_InitFdCgi>
    b164:	e1500004 	cmp	r0, r4
    b168:	01a00004 	moveq	r0, r4
    b16c:	0a000002 	beq	b17c <RemoteFocusd_FdCgiCommandHandler+0xc0>
    b170:	e59f0178 	ldr	r0, [pc, #376]	; b2f0 <RemoteFocusd_FdCgiCommandHandler+0x234>
    b174:	ebfff81e 	bl	91f4 <_init+0x28c>
    b178:	e3e00000 	mvn	r0, #0	; 0x0
    b17c:	e28dde4b 	add	sp, sp, #1200	; 0x4b0
    b180:	e8bd81f0 	pop	{r4, r5, r6, r7, r8, pc}
    b184:	e1a00005 	mov	r0, r5
    b188:	ebfff7cb 	bl	90bc <_init+0x154>
    b18c:	e59f1160 	ldr	r1, [pc, #352]	; b2f4 <RemoteFocusd_FdCgiCommandHandler+0x238>
    b190:	ebfff829 	bl	923c <_init+0x2d4>
    b194:	e3500000 	cmp	r0, #0	; 0x0
    b198:	0a00001d 	beq	b214 <RemoteFocusd_FdCgiCommandHandler+0x158>
    b19c:	e59d44ac 	ldr	r4, [sp, #1196]
    b1a0:	e1a01004 	mov	r1, r4
    b1a4:	e1a00006 	mov	r0, r6
    b1a8:	e1a02007 	mov	r2, r7
    b1ac:	ebfffe88 	bl	abd4 <RemoteFocusd_ParseClientCommand>
    b1b0:	e2508000 	subs	r8, r0, #0	; 0x0
    b1b4:	0a000028 	beq	b25c <RemoteFocusd_FdCgiCommandHandler+0x1a0>
    b1b8:	e59f0138 	ldr	r0, [pc, #312]	; b2f8 <RemoteFocusd_FdCgiCommandHandler+0x23c>
    b1bc:	ebfff80c 	bl	91f4 <_init+0x28c>
    b1c0:	e28d5b01 	add	r5, sp, #1024	; 0x400
    b1c4:	e59fc130 	ldr	ip, [pc, #304]	; b2fc <RemoteFocusd_FdCgiCommandHandler+0x240>
    b1c8:	e2855004 	add	r5, r5, #4	; 0x4
    b1cc:	e1a0e00c 	mov	lr, ip
    b1d0:	e1a04005 	mov	r4, r5
    b1d4:	e8be000f 	ldm	lr!, {r0, r1, r2, r3}
    b1d8:	e8a4000f 	stmia	r4!, {r0, r1, r2, r3}
    b1dc:	e89e000f 	ldm	lr, {r0, r1, r2, r3}
    b1e0:	e8a40007 	stmia	r4!, {r0, r1, r2}
    b1e4:	e1a00005 	mov	r0, r5
    b1e8:	e5c43000 	strb	r3, [r4]
    b1ec:	ebfff7cd 	bl	9128 <_init+0x1c0>
    b1f0:	e59d6484 	ldr	r6, [sp, #1156]
    b1f4:	e1a02000 	mov	r2, r0
    b1f8:	e1a01005 	mov	r1, r5
    b1fc:	e1a00006 	mov	r0, r6
    b200:	ebfff7b9 	bl	90ec <_init+0x184>
    b204:	e1a00006 	mov	r0, r6
    b208:	ebfff7e7 	bl	91ac <_init+0x244>
    b20c:	e3e00000 	mvn	r0, #0	; 0x0
    b210:	eaffffd9 	b	b17c <RemoteFocusd_FdCgiCommandHandler+0xc0>
    b214:	e59d44ac 	ldr	r4, [sp, #1196]
    b218:	e3540000 	cmp	r4, #0	; 0x0
    b21c:	11a05000 	movne	r5, r0
    b220:	0affffde 	beq	b1a0 <RemoteFocusd_FdCgiCommandHandler+0xe4>
    b224:	e1a00004 	mov	r0, r4
    b228:	ebfff7be 	bl	9128 <_init+0x1c0>
    b22c:	e1500005 	cmp	r0, r5
    b230:	9affffd9 	bls	b19c <RemoteFocusd_FdCgiCommandHandler+0xe0>
    b234:	e7d53004 	ldrb	r3, [r5, r4]
    b238:	e1a00004 	mov	r0, r4
    b23c:	e353002b 	cmp	r3, #43	; 0x2b
    b240:	0243300b 	subeq	r3, r3, #11	; 0xb
    b244:	07c53004 	strbeq	r3, [r5, r4]
    b248:	ebfff7b6 	bl	9128 <_init+0x1c0>
    b24c:	e2855001 	add	r5, r5, #1	; 0x1
    b250:	e1500005 	cmp	r0, r5
    b254:	8afffff6 	bhi	b234 <RemoteFocusd_FdCgiCommandHandler+0x178>
    b258:	eaffffcf 	b	b19c <RemoteFocusd_FdCgiCommandHandler+0xe0>
    b25c:	e59d3488 	ldr	r3, [sp, #1160]
    b260:	e3530006 	cmp	r3, #6	; 0x6
    b264:	0a00001b 	beq	b2d8 <RemoteFocusd_FdCgiCommandHandler+0x21c>
    b268:	e3530007 	cmp	r3, #7	; 0x7
    b26c:	0a000013 	beq	b2c0 <RemoteFocusd_FdCgiCommandHandler+0x204>
    b270:	e28d4010 	add	r4, sp, #16	; 0x10
    b274:	e244400c 	sub	r4, r4, #12	; 0xc
    b278:	e1a00006 	mov	r0, r6
    b27c:	e1a01007 	mov	r1, r7
    b280:	ebfffc81 	bl	a48c <RemoteFocusd_InformMotorThread>
    b284:	e59f1074 	ldr	r1, [pc, #116]	; b300 <RemoteFocusd_FdCgiCommandHandler+0x244>
    b288:	e3a0206e 	mov	r2, #110	; 0x6e
    b28c:	e1a00004 	mov	r0, r4
    b290:	e59d5484 	ldr	r5, [sp, #1156]
    b294:	ebfff7ac 	bl	914c <_init+0x1e4>
    b298:	e1a00004 	mov	r0, r4
    b29c:	ebfff7a1 	bl	9128 <_init+0x1c0>
    b2a0:	e1a01004 	mov	r1, r4
    b2a4:	e1a02000 	mov	r2, r0
    b2a8:	e1a00005 	mov	r0, r5
    b2ac:	ebfff78e 	bl	90ec <_init+0x184>
    b2b0:	e1a00005 	mov	r0, r5
    b2b4:	ebfff7bc 	bl	91ac <_init+0x244>
    b2b8:	e1a00008 	mov	r0, r8
    b2bc:	eaffffae 	b	b17c <RemoteFocusd_FdCgiCommandHandler+0xc0>
    b2c0:	e1a00006 	mov	r0, r6
    b2c4:	e59d1484 	ldr	r1, [sp, #1156]
    b2c8:	e59d2494 	ldr	r2, [sp, #1172]
    b2cc:	ebfffe99 	bl	ad38 <RemoteFocusd_ReplyParam>
    b2d0:	e1a00008 	mov	r0, r8
    b2d4:	eaffffa8 	b	b17c <RemoteFocusd_FdCgiCommandHandler+0xc0>
    b2d8:	e1a00006 	mov	r0, r6
    b2dc:	e59d1484 	ldr	r1, [sp, #1156]
    b2e0:	ebfffeb7 	bl	adc4 <RemoteFocusd_ReplyStatus>
    b2e4:	e1a00008 	mov	r0, r8
    b2e8:	eaffffa3 	b	b17c <RemoteFocusd_FdCgiCommandHandler+0xc0>
    b2ec:	0000eda4 	.word	0x0000eda4
    b2f0:	0000e3e0 	.word	0x0000e3e0
    b2f4:	0000edcc 	.word	0x0000edcc
    b2f8:	0000edd4 	.word	0x0000edd4
    b2fc:	0000ecf0 	.word	0x0000ecf0
    b300:	0000ec80 	.word	0x0000ec80

0000b304 <RemoteFocusd_FIFOCommandHandler>:
    b304:	e92d4030 	push	{r4, r5, lr}
    b308:	e24dde4e 	sub	sp, sp, #1248	; 0x4e0
    b30c:	e24dd00c 	sub	sp, sp, #12	; 0xc
    b310:	e28d5008 	add	r5, sp, #8	; 0x8
    b314:	e1a04000 	mov	r4, r0
    b318:	e3a01000 	mov	r1, #0	; 0x0
    b31c:	e3a02b01 	mov	r2, #1024	; 0x400
    b320:	e1a00005 	mov	r0, r5
    b324:	ebfff758 	bl	908c <_init+0x124>
    b328:	e5940014 	ldr	r0, [r4, #20]
    b32c:	e1a01005 	mov	r1, r5
    b330:	e3a02004 	mov	r2, #4	; 0x4
    b334:	ebfff769 	bl	90e0 <_init+0x178>
    b338:	e3500003 	cmp	r0, #3	; 0x3
    b33c:	ca000005 	bgt	b358 <RemoteFocusd_FIFOCommandHandler+0x54>
    b340:	e59f0148 	ldr	r0, [pc, #328]	; b490 <RemoteFocusd_FIFOCommandHandler+0x18c>
    b344:	ebfff7aa 	bl	91f4 <_init+0x28c>
    b348:	e3a00002 	mov	r0, #2	; 0x2
    b34c:	e28dd0ec 	add	sp, sp, #236	; 0xec
    b350:	e28ddb01 	add	sp, sp, #1024	; 0x400
    b354:	e8bd8030 	pop	{r4, r5, pc}
    b358:	e5dd3009 	ldrb	r3, [sp, #9]
    b35c:	e5dd2008 	ldrb	r2, [sp, #8]
    b360:	e2733001 	rsbs	r3, r3, #1	; 0x1
    b364:	33a03000 	movcc	r3, #0	; 0x0
    b368:	e3520001 	cmp	r2, #1	; 0x1
    b36c:	13833001 	orrne	r3, r3, #1	; 0x1
    b370:	e3530000 	cmp	r3, #0	; 0x0
    b374:	e58d24e0 	str	r2, [sp, #1248]
    b378:	0a000005 	beq	b394 <RemoteFocusd_FIFOCommandHandler+0x90>
    b37c:	e59f0110 	ldr	r0, [pc, #272]	; b494 <RemoteFocusd_FIFOCommandHandler+0x190>
    b380:	ebfff79b 	bl	91f4 <_init+0x28c>
    b384:	e59f010c 	ldr	r0, [pc, #268]	; b498 <RemoteFocusd_FIFOCommandHandler+0x194>
    b388:	ebfff799 	bl	91f4 <_init+0x28c>
    b38c:	e3e00000 	mvn	r0, #0	; 0x0
    b390:	eaffffed 	b	b34c <RemoteFocusd_FIFOCommandHandler+0x48>
    b394:	e28d3e4d 	add	r3, sp, #1232	; 0x4d0
    b398:	e28dce4e 	add	ip, sp, #1248	; 0x4e0
    b39c:	e28cc004 	add	ip, ip, #4	; 0x4
    b3a0:	e1a00005 	mov	r0, r5
    b3a4:	e3a01004 	mov	r1, #4	; 0x4
    b3a8:	e28d2e4e 	add	r2, sp, #1248	; 0x4e0
    b3ac:	e283300c 	add	r3, r3, #12	; 0xc
    b3b0:	e58dc000 	str	ip, [sp]
    b3b4:	ebfff776 	bl	9194 <_init+0x22c>
    b3b8:	e3500000 	cmp	r0, #0	; 0x0
    b3bc:	0a000003 	beq	b3d0 <RemoteFocusd_FIFOCommandHandler+0xcc>
    b3c0:	e59f00d4 	ldr	r0, [pc, #212]	; b49c <RemoteFocusd_FIFOCommandHandler+0x198>
    b3c4:	ebfff78a 	bl	91f4 <_init+0x28c>
    b3c8:	e3e00000 	mvn	r0, #0	; 0x0
    b3cc:	eaffffde 	b	b34c <RemoteFocusd_FIFOCommandHandler+0x48>
    b3d0:	e59d24e4 	ldr	r2, [sp, #1252]
    b3d4:	e59d34dc 	ldr	r3, [sp, #1244]
    b3d8:	e2422004 	sub	r2, r2, #4	; 0x4
    b3dc:	e0822003 	add	r2, r2, r3
    b3e0:	e5940014 	ldr	r0, [r4, #20]
    b3e4:	e2851004 	add	r1, r5, #4	; 0x4
    b3e8:	ebfff73c 	bl	90e0 <_init+0x178>
    b3ec:	e3500000 	cmp	r0, #0	; 0x0
    b3f0:	baffffd2 	blt	b340 <RemoteFocusd_FIFOCommandHandler+0x3c>
    b3f4:	e59d14dc 	ldr	r1, [sp, #1244]
    b3f8:	e59f00a0 	ldr	r0, [pc, #160]	; b4a0 <RemoteFocusd_FIFOCommandHandler+0x19c>
    b3fc:	e0851001 	add	r1, r5, r1
    b400:	ebfff757 	bl	9164 <_init+0x1fc>
    b404:	e59d34e0 	ldr	r3, [sp, #1248]
    b408:	e59d14dc 	ldr	r1, [sp, #1244]
    b40c:	e3530001 	cmp	r3, #1	; 0x1
    b410:	e59d24e4 	ldr	r2, [sp, #1252]
    b414:	0a000001 	beq	b420 <RemoteFocusd_FIFOCommandHandler+0x11c>
    b418:	e3a00000 	mov	r0, #0	; 0x0
    b41c:	eaffffca 	b	b34c <RemoteFocusd_FIFOCommandHandler+0x48>
    b420:	e0851001 	add	r1, r5, r1
    b424:	e28d3e4d 	add	r3, sp, #1232	; 0x4d0
    b428:	e28d5b01 	add	r5, sp, #1024	; 0x400
    b42c:	e5940004 	ldr	r0, [r4, #4]
    b430:	e3a0c00a 	mov	ip, #10	; 0xa
    b434:	e28dee4d 	add	lr, sp, #1232	; 0x4d0
    b438:	e2855008 	add	r5, r5, #8	; 0x8
    b43c:	e2833008 	add	r3, r3, #8	; 0x8
    b440:	e58dc4d8 	str	ip, [sp, #1240]
    b444:	e88d4020 	stm	sp, {r5, lr}
    b448:	ebfff712 	bl	9098 <_init+0x130>
    b44c:	e3500000 	cmp	r0, #0	; 0x0
    b450:	0a000005 	beq	b46c <RemoteFocusd_FIFOCommandHandler+0x168>
    b454:	e59f0048 	ldr	r0, [pc, #72]	; b4a4 <RemoteFocusd_FIFOCommandHandler+0x1a0>
    b458:	ebfff765 	bl	91f4 <_init+0x28c>
    b45c:	e59f0044 	ldr	r0, [pc, #68]	; b4a8 <RemoteFocusd_FIFOCommandHandler+0x1a4>
    b460:	ebfff763 	bl	91f4 <_init+0x28c>
    b464:	e3e00000 	mvn	r0, #0	; 0x0
    b468:	eaffffb7 	b	b34c <RemoteFocusd_FIFOCommandHandler+0x48>
    b46c:	e1a00004 	mov	r0, r4
    b470:	e1a02005 	mov	r2, r5
    b474:	e59d14d8 	ldr	r1, [sp, #1240]
    b478:	ebfffafa 	bl	a068 <RemoteFocusd_HandleEventMessage>
    b47c:	e3500000 	cmp	r0, #0	; 0x0
    b480:	0affffe4 	beq	b418 <RemoteFocusd_FIFOCommandHandler+0x114>
    b484:	e59f0020 	ldr	r0, [pc, #32]	; b4ac <RemoteFocusd_FIFOCommandHandler+0x1a8>
    b488:	ebfff759 	bl	91f4 <_init+0x28c>
    b48c:	eafffff2 	b	b45c <RemoteFocusd_FIFOCommandHandler+0x158>
    b490:	0000ee10 	.word	0x0000ee10
    b494:	0000e520 	.word	0x0000e520
    b498:	0000ee38 	.word	0x0000ee38
    b49c:	0000ee6c 	.word	0x0000ee6c
    b4a0:	0000ee9c 	.word	0x0000ee9c
    b4a4:	0000e6c8 	.word	0x0000e6c8
    b4a8:	0000eec8 	.word	0x0000eec8
    b4ac:	0000e6f8 	.word	0x0000e6f8

0000b4b0 <RemoteFocusd_SelectHandler>:
    b4b0:	e24dd010 	sub	sp, sp, #16	; 0x10
    b4b4:	e92d4010 	push	{r4, lr}
    b4b8:	e590e010 	ldr	lr, [r0, #16]
    b4bc:	e28dc00c 	add	ip, sp, #12	; 0xc
    b4c0:	e88c000e 	stm	ip, {r1, r2, r3}
    b4c4:	e1a032ae 	lsr	r3, lr, #5
    b4c8:	e1a03103 	lsl	r3, r3, #2
    b4cc:	e28d1008 	add	r1, sp, #8	; 0x8
    b4d0:	e0833001 	add	r3, r3, r1
    b4d4:	e5932004 	ldr	r2, [r3, #4]
    b4d8:	e20ee01f 	and	lr, lr, #31	; 0x1f
    b4dc:	e1a02e52 	asr	r2, r2, lr
    b4e0:	e3120001 	tst	r2, #1	; 0x1
    b4e4:	e1a04000 	mov	r4, r0
    b4e8:	1a000028 	bne	b590 <RemoteFocusd_SelectHandler+0xe0>
    b4ec:	e5903014 	ldr	r3, [r0, #20]
    b4f0:	e1a022a3 	lsr	r2, r3, #5
    b4f4:	e1a02102 	lsl	r2, r2, #2
    b4f8:	e0822001 	add	r2, r2, r1
    b4fc:	e5921004 	ldr	r1, [r2, #4]
    b500:	e203301f 	and	r3, r3, #31	; 0x1f
    b504:	e1a01351 	asr	r1, r1, r3
    b508:	e3110001 	tst	r1, #1	; 0x1
    b50c:	1a000003 	bne	b520 <RemoteFocusd_SelectHandler+0x70>
    b510:	e3a00000 	mov	r0, #0	; 0x0
    b514:	e8bd4010 	pop	{r4, lr}
    b518:	e28dd010 	add	sp, sp, #16	; 0x10
    b51c:	e12fff1e 	bx	lr
    b520:	ebffff77 	bl	b304 <RemoteFocusd_FIFOCommandHandler>
    b524:	e3500002 	cmp	r0, #2	; 0x2
    b528:	1afffff8 	bne	b510 <RemoteFocusd_SelectHandler+0x60>
    b52c:	e59f0078 	ldr	r0, [pc, #120]	; b5ac <RemoteFocusd_SelectHandler+0xfc>
    b530:	ebfff72f 	bl	91f4 <_init+0x28c>
    b534:	e59f0074 	ldr	r0, [pc, #116]	; b5b0 <RemoteFocusd_SelectHandler+0x100>
    b538:	ebfff72d 	bl	91f4 <_init+0x28c>
    b53c:	e5940014 	ldr	r0, [r4, #20]
    b540:	e3a03001 	mov	r3, #1	; 0x1
    b544:	e200101f 	and	r1, r0, #31	; 0x1f
    b548:	e1a03113 	lsl	r3, r3, r1
    b54c:	e1a022a0 	lsr	r2, r0, #5
    b550:	e1a02102 	lsl	r2, r2, #2
    b554:	e0822004 	add	r2, r2, r4
    b558:	e5921018 	ldr	r1, [r2, #24]
    b55c:	e1e03003 	mvn	r3, r3
    b560:	e0033001 	and	r3, r3, r1
    b564:	e5823018 	str	r3, [r2, #24]
    b568:	ebfff70f 	bl	91ac <_init+0x244>
    b56c:	e1a00004 	mov	r0, r4
    b570:	ebfff8c8 	bl	9898 <RemoteFocusd_InitFIFO>
    b574:	e3500000 	cmp	r0, #0	; 0x0
    b578:	02400001 	subeq	r0, r0, #1	; 0x1
    b57c:	0affffe4 	beq	b514 <RemoteFocusd_SelectHandler+0x64>
    b580:	e59f002c 	ldr	r0, [pc, #44]	; b5b4 <RemoteFocusd_SelectHandler+0x104>
    b584:	ebfff71a 	bl	91f4 <_init+0x28c>
    b588:	e3e00000 	mvn	r0, #0	; 0x0
    b58c:	eaffffe0 	b	b514 <RemoteFocusd_SelectHandler+0x64>
    b590:	ebfffec9 	bl	b0bc <RemoteFocusd_FdCgiCommandHandler>
    b594:	e3500000 	cmp	r0, #0	; 0x0
    b598:	0affffdc 	beq	b510 <RemoteFocusd_SelectHandler+0x60>
    b59c:	e59f0014 	ldr	r0, [pc, #20]	; b5b8 <RemoteFocusd_SelectHandler+0x108>
    b5a0:	ebfff713 	bl	91f4 <_init+0x28c>
    b5a4:	e3e00000 	mvn	r0, #0	; 0x0
    b5a8:	eaffffd9 	b	b514 <RemoteFocusd_SelectHandler+0x64>
    b5ac:	0000ef38 	.word	0x0000ef38
    b5b0:	0000ef74 	.word	0x0000ef74
    b5b4:	0000e410 	.word	0x0000e410
    b5b8:	0000eefc 	.word	0x0000eefc

0000b5bc <RemoteFocusd_InfoProcess>:
    b5bc:	e92d41f0 	push	{r4, r5, r6, r7, r8, lr}
    b5c0:	e24ddc01 	sub	sp, sp, #256	; 0x100
    b5c4:	e1a06000 	mov	r6, r0
    b5c8:	ebfffe84 	bl	afe0 <RemoteFocusd_CheckLogFile>
    b5cc:	e59f80f0 	ldr	r8, [pc, #240]	; b6c4 <RemoteFocusd_InfoProcess+0x108>
    b5d0:	e59f70f0 	ldr	r7, [pc, #240]	; b6c8 <RemoteFocusd_InfoProcess+0x10c>
    b5d4:	e5974000 	ldr	r4, [r7]
    b5d8:	e28d5078 	add	r5, sp, #120	; 0x78
    b5dc:	e3540000 	cmp	r4, #0	; 0x0
    b5e0:	e2861018 	add	r1, r6, #24	; 0x18
    b5e4:	e1a00005 	mov	r0, r5
    b5e8:	e3a02080 	mov	r2, #128	; 0x80
    b5ec:	1a000024 	bne	b684 <RemoteFocusd_InfoProcess+0xc8>
    b5f0:	e5983000 	ldr	r3, [r8]
    b5f4:	e3530000 	cmp	r3, #0	; 0x0
    b5f8:	0a00002d 	beq	b6b4 <RemoteFocusd_InfoProcess+0xf8>
    b5fc:	ebfff6d2 	bl	914c <_init+0x1e4>
    b600:	e596000c 	ldr	r0, [r6, #12]
    b604:	e1a02004 	mov	r2, r4
    b608:	e1a01005 	mov	r1, r5
    b60c:	e3a0c003 	mov	ip, #3	; 0x3
    b610:	e28de0f8 	add	lr, sp, #248	; 0xf8
    b614:	e2800001 	add	r0, r0, #1	; 0x1
    b618:	e1a03004 	mov	r3, r4
    b61c:	e58dc0f8 	str	ip, [sp, #248]
    b620:	e58de000 	str	lr, [sp]
    b624:	e58d40fc 	str	r4, [sp, #252]
    b628:	ebfff6dc 	bl	91a0 <_init+0x238>
    b62c:	e3500000 	cmp	r0, #0	; 0x0
    b630:	e28d1084 	add	r1, sp, #132	; 0x84
    b634:	e3a02074 	mov	r2, #116	; 0x74
    b638:	e1a0000d 	mov	r0, sp
    b63c:	ba000015 	blt	b698 <RemoteFocusd_InfoProcess+0xdc>
    b640:	059f0084 	ldreq	r0, [pc, #132]	; b6cc <RemoteFocusd_InfoProcess+0x110>
    b644:	0a000018 	beq	b6ac <RemoteFocusd_InfoProcess+0xf0>
    b648:	ebfff6bf 	bl	914c <_init+0x1e4>
    b64c:	e895000e 	ldm	r5, {r1, r2, r3}
    b650:	e1a00006 	mov	r0, r6
    b654:	ebffff95 	bl	b4b0 <RemoteFocusd_SelectHandler>
    b658:	e3500000 	cmp	r0, #0	; 0x0
    b65c:	0affffdc 	beq	b5d4 <RemoteFocusd_InfoProcess+0x18>
    b660:	e59f0068 	ldr	r0, [pc, #104]	; b6d0 <RemoteFocusd_InfoProcess+0x114>
    b664:	ebfff6e2 	bl	91f4 <_init+0x28c>
    b668:	e5974000 	ldr	r4, [r7]
    b66c:	e28d5078 	add	r5, sp, #120	; 0x78
    b670:	e3540000 	cmp	r4, #0	; 0x0
    b674:	e2861018 	add	r1, r6, #24	; 0x18
    b678:	e1a00005 	mov	r0, r5
    b67c:	e3a02080 	mov	r2, #128	; 0x80
    b680:	0affffda 	beq	b5f0 <RemoteFocusd_InfoProcess+0x34>
    b684:	e3a03000 	mov	r3, #0	; 0x0
    b688:	e5883000 	str	r3, [r8]
    b68c:	e1a00003 	mov	r0, r3
    b690:	e28ddc01 	add	sp, sp, #256	; 0x100
    b694:	e8bd81f0 	pop	{r4, r5, r6, r7, r8, pc}
    b698:	ebfff6ed 	bl	9254 <_init+0x2ec>
    b69c:	e5903000 	ldr	r3, [r0]
    b6a0:	e59f002c 	ldr	r0, [pc, #44]	; b6d4 <RemoteFocusd_InfoProcess+0x118>
    b6a4:	e3530004 	cmp	r3, #4	; 0x4
    b6a8:	0affffc9 	beq	b5d4 <RemoteFocusd_InfoProcess+0x18>
    b6ac:	ebfff6d0 	bl	91f4 <_init+0x28c>
    b6b0:	eaffffc7 	b	b5d4 <RemoteFocusd_InfoProcess+0x18>
    b6b4:	e59f001c 	ldr	r0, [pc, #28]	; b6d8 <RemoteFocusd_InfoProcess+0x11c>
    b6b8:	ebfff6cd 	bl	91f4 <_init+0x28c>
    b6bc:	e3e00000 	mvn	r0, #0	; 0x0
    b6c0:	eafffff2 	b	b690 <RemoteFocusd_InfoProcess+0xd4>
    b6c4:	0001762c 	.word	0x0001762c
    b6c8:	00017638 	.word	0x00017638
    b6cc:	0000f024 	.word	0x0000f024
    b6d0:	0000eff0 	.word	0x0000eff0
    b6d4:	0000efd0 	.word	0x0000efd0
    b6d8:	0000ef9c 	.word	0x0000ef9c

0000b6dc <RemoteFocusd_EnableFetch>:
    b6dc:	e5903108 	ldr	r3, [r0, #264]
    b6e0:	e5831004 	str	r1, [r3, #4]
    b6e4:	e12fff1e 	bx	lr

0000b6e8 <RemoteFocusd_FetchFocusValue>:
    b6e8:	e5903108 	ldr	r3, [r0, #264]
    b6ec:	e5932008 	ldr	r2, [r3, #8]
    b6f0:	e580209c 	str	r2, [r0, #156]
    b6f4:	e12fff1e 	bx	lr

0000b6f8 <RemoteFocusd_CalculatePanFocusPosition>:
    b6f8:	e5903134 	ldr	r3, [r0, #308]
    b6fc:	e3530000 	cmp	r3, #0	; 0x0
    b700:	012fff1e 	bxeq	lr
    b704:	e3510000 	cmp	r1, #0	; 0x0
    b708:	1a000003 	bne	b71c <RemoteFocusd_CalculatePanFocusPosition+0x24>
    b70c:	e59f3038 	ldr	r3, [pc, #56]	; b74c <RemoteFocusd_CalculatePanFocusPosition+0x54>
    b710:	e5932000 	ldr	r2, [r3]
    b714:	e58020ac 	str	r2, [r0, #172]
    b718:	e12fff1e 	bx	lr
    b71c:	e59f302c 	ldr	r3, [pc, #44]	; b750 <RemoteFocusd_CalculatePanFocusPosition+0x58>
    b720:	e1510003 	cmp	r1, r3
    b724:	959f2020 	ldrls	r2, [pc, #32]	; b74c <RemoteFocusd_CalculatePanFocusPosition+0x54>
    b728:	91a03101 	lslls	r3, r1, #2
    b72c:	859f3018 	ldrhi	r3, [pc, #24]	; b74c <RemoteFocusd_CalculatePanFocusPosition+0x54>
    b730:	859f201c 	ldrhi	r2, [pc, #28]	; b754 <RemoteFocusd_CalculatePanFocusPosition+0x5c>
    b734:	90833002 	addls	r3, r3, r2
    b738:	87931002 	ldrhi	r1, [r3, r2]
    b73c:	95131004 	ldrls	r1, [r3, #-4]
    b740:	858010ac 	strhi	r1, [r0, #172]
    b744:	958010ac 	strls	r1, [r0, #172]
    b748:	e12fff1e 	bx	lr
    b74c:	0001763c 	.word	0x0001763c
    b750:	00000514 	.word	0x00000514
    b754:	0000144c 	.word	0x0000144c

0000b758 <RemoteFocusd_CalculateFocusingStart>:
    b758:	e92d45f0 	push	{r4, r5, r6, r7, r8, sl, lr}
    b75c:	e5903134 	ldr	r3, [r0, #308]
    b760:	e24dd004 	sub	sp, sp, #4	; 0x4
    b764:	e3530000 	cmp	r3, #0	; 0x0
    b768:	e1a08000 	mov	r8, r0
    b76c:	e1a0a001 	mov	sl, r1
    b770:	0a00001e 	beq	b7f0 <RemoteFocusd_CalculateFocusingStart+0x98>
    b774:	e59f308c 	ldr	r3, [pc, #140]	; b808 <RemoteFocusd_CalculateFocusingStart+0xb0>
    b778:	e0821a93 	umull	r1, r2, r3, sl
    b77c:	e1a072a2 	lsr	r7, r2, #5
    b780:	e357000d 	cmp	r7, #13	; 0xd
    b784:	8a00001b 	bhi	b7f8 <RemoteFocusd_CalculateFocusingStart+0xa0>
    b788:	e59f207c 	ldr	r2, [pc, #124]	; b80c <RemoteFocusd_CalculateFocusingStart+0xb4>
    b78c:	e2873001 	add	r3, r7, #1	; 0x1
    b790:	e7920103 	ldr	r0, [r2, r3, lsl #2]
    b794:	e7926107 	ldr	r6, [r2, r7, lsl #2]
    b798:	e0600006 	rsb	r0, r0, r6
    b79c:	e3500000 	cmp	r0, #0	; 0x0
    b7a0:	b2600000 	rsblt	r0, r0, #0	; 0x0
    b7a4:	eb0007fa 	bl	d794 <__aeabi_ui2d>
    b7a8:	e3a02000 	mov	r2, #0	; 0x0
    b7ac:	e59f305c 	ldr	r3, [pc, #92]	; b810 <RemoteFocusd_CalculateFocusingStart+0xb8>
    b7b0:	eb0008d2 	bl	db00 <__aeabi_ddiv>
    b7b4:	e1a04000 	mov	r4, r0
    b7b8:	e1a00287 	lsl	r0, r7, #5
    b7bc:	e0400187 	sub	r0, r0, r7, lsl #3
    b7c0:	e0670000 	rsb	r0, r7, r0
    b7c4:	e04a0080 	sub	r0, sl, r0, lsl #1
    b7c8:	e1a05001 	mov	r5, r1
    b7cc:	eb0007f0 	bl	d794 <__aeabi_ui2d>
    b7d0:	e1a02000 	mov	r2, r0
    b7d4:	e1a03001 	mov	r3, r1
    b7d8:	e1a00004 	mov	r0, r4
    b7dc:	e1a01005 	mov	r1, r5
    b7e0:	eb00082b 	bl	d894 <__aeabi_dmul>
    b7e4:	eb000946 	bl	dd04 <__aeabi_d2uiz>
    b7e8:	e0800006 	add	r0, r0, r6
    b7ec:	e58800c4 	str	r0, [r8, #196]
    b7f0:	e28dd004 	add	sp, sp, #4	; 0x4
    b7f4:	e8bd85f0 	pop	{r4, r5, r6, r7, r8, sl, pc}
    b7f8:	e59f300c 	ldr	r3, [pc, #12]	; b80c <RemoteFocusd_CalculateFocusingStart+0xb4>
    b7fc:	e5932038 	ldr	r2, [r3, #56]
    b800:	e58020c4 	str	r2, [r0, #196]
    b804:	eafffff9 	b	b7f0 <RemoteFocusd_CalculateFocusingStart+0x98>
    b808:	b21642c9 	.word	0xb21642c9
    b80c:	0000f044 	.word	0x0000f044
    b810:	40470000 	.word	0x40470000

0000b814 <RemoteFocusd_ZoomMotorPositioning>:
    b814:	e92d4030 	push	{r4, r5, lr}
    b818:	e5903130 	ldr	r3, [r0, #304]
    b81c:	e24dd004 	sub	sp, sp, #4	; 0x4
    b820:	e3530000 	cmp	r3, #0	; 0x0
    b824:	e1a05000 	mov	r5, r0
    b828:	e1a04001 	mov	r4, r1
    b82c:	0a000011 	beq	b878 <RemoteFocusd_ZoomMotorPositioning+0x64>
    b830:	e59f1048 	ldr	r1, [pc, #72]	; b880 <RemoteFocusd_ZoomMotorPositioning+0x6c>
    b834:	e1a00004 	mov	r0, r4
    b838:	ebfff634 	bl	9110 <_init+0x1a8>
    b83c:	e59f2040 	ldr	r2, [pc, #64]	; b884 <RemoteFocusd_ZoomMotorPositioning+0x70>
    b840:	e59f1040 	ldr	r1, [pc, #64]	; b888 <RemoteFocusd_ZoomMotorPositioning+0x74>
    b844:	e1a00004 	mov	r0, r4
    b848:	ebfff630 	bl	9110 <_init+0x1a8>
    b84c:	e3a01c4d 	mov	r1, #19712	; 0x4d00
    b850:	e1a00004 	mov	r0, r4
    b854:	ebfff62d 	bl	9110 <_init+0x1a8>
    b858:	e59520f0 	ldr	r2, [r5, #240]
    b85c:	e1a00004 	mov	r0, r4
    b860:	e59f1020 	ldr	r1, [pc, #32]	; b888 <RemoteFocusd_ZoomMotorPositioning+0x74>
    b864:	ebfff629 	bl	9110 <_init+0x1a8>
    b868:	e59520f0 	ldr	r2, [r5, #240]
    b86c:	e3a03000 	mov	r3, #0	; 0x0
    b870:	e58530e4 	str	r3, [r5, #228]
    b874:	e58520e0 	str	r2, [r5, #224]
    b878:	e28dd004 	add	sp, sp, #4	; 0x4
    b87c:	e8bd8030 	pop	{r4, r5, pc}
    b880:	00004d01 	.word	0x00004d01
    b884:	00000578 	.word	0x00000578
    b888:	40044d06 	.word	0x40044d06

0000b88c <RemoteFocusd_MoveFocusMotor>:
    b88c:	e5903134 	ldr	r3, [r0, #308]
    b890:	e92d4070 	push	{r4, r5, r6, lr}
    b894:	e3530000 	cmp	r3, #0	; 0x0
    b898:	e1a04000 	mov	r4, r0
    b89c:	e1a05001 	mov	r5, r1
    b8a0:	03e00000 	mvneq	r0, #0	; 0x0
    b8a4:	08bd8070 	popeq	{r4, r5, r6, pc}
    b8a8:	e3520801 	cmp	r2, #65536	; 0x10000
    b8ac:	259f60bc 	ldrcs	r6, [pc, #188]	; b970 <RemoteFocusd_MoveFocusMotor+0xe4>
    b8b0:	3a000026 	bcc	b950 <RemoteFocusd_MoveFocusMotor+0xc4>
    b8b4:	e59430a8 	ldr	r3, [r4, #168]
    b8b8:	e1560003 	cmp	r6, r3
    b8bc:	3a00000a 	bcc	b8ec <RemoteFocusd_MoveFocusMotor+0x60>
    b8c0:	e3a01c4d 	mov	r1, #19712	; 0x4d00
    b8c4:	e1a00005 	mov	r0, r5
    b8c8:	ebfff610 	bl	9110 <_init+0x1a8>
    b8cc:	e59420a8 	ldr	r2, [r4, #168]
    b8d0:	e1a00005 	mov	r0, r5
    b8d4:	e58460a8 	str	r6, [r4, #168]
    b8d8:	e0622006 	rsb	r2, r2, r6
    b8dc:	e59f1090 	ldr	r1, [pc, #144]	; b974 <RemoteFocusd_MoveFocusMotor+0xe8>
    b8e0:	ebfff60a 	bl	9110 <_init+0x1a8>
    b8e4:	e3a00000 	mov	r0, #0	; 0x0
    b8e8:	e8bd8070 	pop	{r4, r5, r6, pc}
    b8ec:	e59f1084 	ldr	r1, [pc, #132]	; b978 <RemoteFocusd_MoveFocusMotor+0xec>
    b8f0:	e1a00005 	mov	r0, r5
    b8f4:	ebfff605 	bl	9110 <_init+0x1a8>
    b8f8:	e59420a8 	ldr	r2, [r4, #168]
    b8fc:	e1a00005 	mov	r0, r5
    b900:	e58460a8 	str	r6, [r4, #168]
    b904:	e0662002 	rsb	r2, r6, r2
    b908:	e59f1064 	ldr	r1, [pc, #100]	; b974 <RemoteFocusd_MoveFocusMotor+0xe8>
    b90c:	ebfff5ff 	bl	9110 <_init+0x1a8>
    b910:	e3560035 	cmp	r6, #53	; 0x35
    b914:	93a00000 	movls	r0, #0	; 0x0
    b918:	98bd8070 	popls	{r4, r5, r6, pc}
    b91c:	e3a02036 	mov	r2, #54	; 0x36
    b920:	e59f104c 	ldr	r1, [pc, #76]	; b974 <RemoteFocusd_MoveFocusMotor+0xe8>
    b924:	e1a00005 	mov	r0, r5
    b928:	ebfff5f8 	bl	9110 <_init+0x1a8>
    b92c:	e1a00005 	mov	r0, r5
    b930:	e3a01c4d 	mov	r1, #19712	; 0x4d00
    b934:	ebfff5f5 	bl	9110 <_init+0x1a8>
    b938:	e1a00005 	mov	r0, r5
    b93c:	e59f1030 	ldr	r1, [pc, #48]	; b974 <RemoteFocusd_MoveFocusMotor+0xe8>
    b940:	e3a02036 	mov	r2, #54	; 0x36
    b944:	ebfff5f1 	bl	9110 <_init+0x1a8>
    b948:	e3a00000 	mov	r0, #0	; 0x0
    b94c:	e8bd8070 	pop	{r4, r5, r6, pc}
    b950:	e59f3024 	ldr	r3, [pc, #36]	; b97c <RemoteFocusd_MoveFocusMotor+0xf0>
    b954:	e1520003 	cmp	r2, r3
    b958:	31a06002 	movcc	r6, r2
    b95c:	21a06003 	movcs	r6, r3
    b960:	e59430a8 	ldr	r3, [r4, #168]
    b964:	e1560003 	cmp	r6, r3
    b968:	3affffdf 	bcc	b8ec <RemoteFocusd_MoveFocusMotor+0x60>
    b96c:	eaffffd3 	b	b8c0 <RemoteFocusd_MoveFocusMotor+0x34>
    b970:	000001c2 	.word	0x000001c2
    b974:	40044d06 	.word	0x40044d06
    b978:	00004d01 	.word	0x00004d01
    b97c:	00000c92 	.word	0x00000c92

0000b980 <RemoteFocusd_OperateFocusMotor>:
    b980:	e5903134 	ldr	r3, [r0, #308]
    b984:	e92d4010 	push	{r4, lr}
    b988:	e3530000 	cmp	r3, #0	; 0x0
    b98c:	e1a04000 	mov	r4, r0
    b990:	08bd8010 	popeq	{r4, pc}
    b994:	e590c0b4 	ldr	ip, [r0, #180]
    b998:	e35c0002 	cmp	ip, #2	; 0x2
    b99c:	0a000011 	beq	b9e8 <RemoteFocusd_OperateFocusMotor+0x68>
    b9a0:	e59030b8 	ldr	r3, [r0, #184]
    b9a4:	e353001e 	cmp	r3, #30	; 0x1e
    b9a8:	23a0301e 	movcs	r3, #30	; 0x1e
    b9ac:	e35c0000 	cmp	ip, #0	; 0x0
    b9b0:	e58030b8 	str	r3, [r0, #184]
    b9b4:	0a000004 	beq	b9cc <RemoteFocusd_OperateFocusMotor+0x4c>
    b9b8:	e35c0001 	cmp	ip, #1	; 0x1
    b9bc:	0a00000e 	beq	b9fc <RemoteFocusd_OperateFocusMotor+0x7c>
    b9c0:	e3a03000 	mov	r3, #0	; 0x0
    b9c4:	e58430b0 	str	r3, [r4, #176]
    b9c8:	e8bd8010 	pop	{r4, pc}
    b9cc:	e59020a8 	ldr	r2, [r0, #168]
    b9d0:	e0832002 	add	r2, r3, r2
    b9d4:	ebffffac 	bl	b88c <RemoteFocusd_MoveFocusMotor>
    b9d8:	e3500000 	cmp	r0, #0	; 0x0
    b9dc:	03a03000 	moveq	r3, #0	; 0x0
    b9e0:	058430b0 	streq	r3, [r4, #176]
    b9e4:	e8bd8010 	pop	{r4, pc}
    b9e8:	e59020bc 	ldr	r2, [r0, #188]
    b9ec:	ebffffa6 	bl	b88c <RemoteFocusd_MoveFocusMotor>
    b9f0:	e3500000 	cmp	r0, #0	; 0x0
    b9f4:	0afffff1 	beq	b9c0 <RemoteFocusd_OperateFocusMotor+0x40>
    b9f8:	e8bd8010 	pop	{r4, pc}
    b9fc:	e59020a8 	ldr	r2, [r0, #168]
    ba00:	e0632002 	rsb	r2, r3, r2
    ba04:	ebffffa0 	bl	b88c <RemoteFocusd_MoveFocusMotor>
    ba08:	e3500000 	cmp	r0, #0	; 0x0
    ba0c:	0affffeb 	beq	b9c0 <RemoteFocusd_OperateFocusMotor+0x40>
    ba10:	e8bd8010 	pop	{r4, pc}

0000ba14 <RemoteFocusd_PerformNextFunction>:
    ba14:	e5903134 	ldr	r3, [r0, #308]
    ba18:	e92d4010 	push	{r4, lr}
    ba1c:	e3530000 	cmp	r3, #0	; 0x0
    ba20:	e1a04000 	mov	r4, r0
    ba24:	08bd8010 	popeq	{r4, pc}
    ba28:	e59030dc 	ldr	r3, [r0, #220]
    ba2c:	e3530003 	cmp	r3, #3	; 0x3
    ba30:	059f0054 	ldreq	r0, [pc, #84]	; ba8c <RemoteFocusd_PerformNextFunction+0x78>
    ba34:	0a00000e 	beq	ba74 <RemoteFocusd_PerformNextFunction+0x60>
    ba38:	e3530004 	cmp	r3, #4	; 0x4
    ba3c:	0a00000b 	beq	ba70 <RemoteFocusd_PerformNextFunction+0x5c>
    ba40:	e3a03001 	mov	r3, #1	; 0x1
    ba44:	e58430a4 	str	r3, [r4, #164]
    ba48:	e28410a4 	add	r1, r4, #164	; 0xa4
    ba4c:	e5940120 	ldr	r0, [r4, #288]
    ba50:	e3a02004 	mov	r2, #4	; 0x4
    ba54:	e283303f 	add	r3, r3, #63	; 0x3f
    ba58:	ebfff5df 	bl	91dc <_init+0x274>
    ba5c:	e3500000 	cmp	r0, #0	; 0x0
    ba60:	a8bd8010 	popge	{r4, pc}
    ba64:	e59f0024 	ldr	r0, [pc, #36]	; ba90 <RemoteFocusd_PerformNextFunction+0x7c>
    ba68:	e8bd4010 	pop	{r4, lr}
    ba6c:	eafff5e0 	b	91f4 <_init+0x28c>
    ba70:	e59f001c 	ldr	r0, [pc, #28]	; ba94 <RemoteFocusd_PerformNextFunction+0x80>
    ba74:	ebfff5de 	bl	91f4 <_init+0x28c>
    ba78:	e59420dc 	ldr	r2, [r4, #220]
    ba7c:	e3a03001 	mov	r3, #1	; 0x1
    ba80:	e58430cc 	str	r3, [r4, #204]
    ba84:	e58420b0 	str	r2, [r4, #176]
    ba88:	eaffffec 	b	ba40 <RemoteFocusd_PerformNextFunction+0x2c>
    ba8c:	0000f080 	.word	0x0000f080
    ba90:	0000e590 	.word	0x0000e590
    ba94:	0000f0a8 	.word	0x0000f0a8

0000ba98 <RemoteFocusd_SetIris>:
    ba98:	e5903134 	ldr	r3, [r0, #308]
    ba9c:	e92d4010 	push	{r4, lr}
    baa0:	e3530000 	cmp	r3, #0	; 0x0
    baa4:	08bd8010 	popeq	{r4, pc}
    baa8:	e5904108 	ldr	r4, [r0, #264]
    baac:	e3a03001 	mov	r3, #1	; 0x1
    bab0:	e3510001 	cmp	r1, #1	; 0x1
    bab4:	e584300c 	str	r3, [r4, #12]
    bab8:	e5841010 	str	r1, [r4, #16]
    babc:	18bd8010 	popne	{r4, pc}
    bac0:	e59f001c 	ldr	r0, [pc, #28]	; bae4 <RemoteFocusd_SetIris+0x4c>
    bac4:	ebfff582 	bl	90d4 <_init+0x16c>
    bac8:	e5943010 	ldr	r3, [r4, #16]
    bacc:	e3530001 	cmp	r3, #1	; 0x1
    bad0:	18bd8010 	popne	{r4, pc}
    bad4:	e594300c 	ldr	r3, [r4, #12]
    bad8:	e3530001 	cmp	r3, #1	; 0x1
    badc:	0afffff7 	beq	bac0 <RemoteFocusd_SetIris+0x28>
    bae0:	e8bd8010 	pop	{r4, pc}
    bae4:	004c4b40 	.word	0x004c4b40

0000bae8 <RemoteFocusd_StepByStepSearch>:
    bae8:	e92d4ff0 	push	{r4, r5, r6, r7, r8, r9, sl, fp, lr}
    baec:	e590c134 	ldr	ip, [r0, #308]
    baf0:	e1a04000 	mov	r4, r0
    baf4:	e35c0000 	cmp	ip, #0	; 0x0
    baf8:	e24dd00c 	sub	sp, sp, #12	; 0xc
    bafc:	e1a06003 	mov	r6, r3
    bb00:	e1a05001 	mov	r5, r1
    bb04:	03e00000 	mvneq	r0, #0	; 0x0
    bb08:	1a000001 	bne	bb14 <RemoteFocusd_StepByStepSearch+0x2c>
    bb0c:	e28dd00c 	add	sp, sp, #12	; 0xc
    bb10:	e8bd8ff0 	pop	{r4, r5, r6, r7, r8, r9, sl, fp, pc}
    bb14:	ebffff5c 	bl	b88c <RemoteFocusd_MoveFocusMotor>
    bb18:	e2507000 	subs	r7, r0, #0	; 0x0
    bb1c:	0a000004 	beq	bb34 <RemoteFocusd_StepByStepSearch+0x4c>
    bb20:	e5942108 	ldr	r2, [r4, #264]
    bb24:	e3a03000 	mov	r3, #0	; 0x0
    bb28:	e3e00000 	mvn	r0, #0	; 0x0
    bb2c:	e5823004 	str	r3, [r2, #4]
    bb30:	eafffff5 	b	bb0c <RemoteFocusd_StepByStepSearch+0x24>
    bb34:	e5943108 	ldr	r3, [r4, #264]
    bb38:	e3a02001 	mov	r2, #1	; 0x1
    bb3c:	e5832004 	str	r2, [r3, #4]
    bb40:	e59f0138 	ldr	r0, [pc, #312]	; bc80 <RemoteFocusd_StepByStepSearch+0x198>
    bb44:	ebfff562 	bl	90d4 <_init+0x16c>
    bb48:	e5943108 	ldr	r3, [r4, #264]
    bb4c:	e59f8130 	ldr	r8, [pc, #304]	; bc84 <RemoteFocusd_StepByStepSearch+0x19c>
    bb50:	e5939008 	ldr	r9, [r3, #8]
    bb54:	e59f012c 	ldr	r0, [pc, #300]	; bc88 <RemoteFocusd_StepByStepSearch+0x1a0>
    bb58:	e584909c 	str	r9, [r4, #156]
    bb5c:	e1a01009 	mov	r1, r9
    bb60:	e5889000 	str	r9, [r8]
    bb64:	ebfff57e 	bl	9164 <_init+0x1fc>
    bb68:	e3a01c4d 	mov	r1, #19712	; 0x4d00
    bb6c:	e1a00005 	mov	r0, r5
    bb70:	ebfff566 	bl	9110 <_init+0x1a8>
    bb74:	e59d1030 	ldr	r1, [sp, #48]
    bb78:	e1510006 	cmp	r1, r6
    bb7c:	858d7004 	strhi	r7, [sp, #4]
    bb80:	8a00002a 	bhi	bc30 <RemoteFocusd_StepByStepSearch+0x148>
    bb84:	e59400a4 	ldr	r0, [r4, #164]
    bb88:	e3500000 	cmp	r0, #0	; 0x0
    bb8c:	1a000038 	bne	bc74 <RemoteFocusd_StepByStepSearch+0x18c>
    bb90:	e59d2030 	ldr	r2, [sp, #48]
    bb94:	e58d0004 	str	r0, [sp, #4]
    bb98:	e1a0b102 	lsl	fp, r2, #2
    bb9c:	e08ba008 	add	sl, fp, r8
    bba0:	e1a07002 	mov	r7, r2
    bba4:	e1a08082 	lsl	r8, r2, #1
    bba8:	ea000002 	b	bbb8 <RemoteFocusd_StepByStepSearch+0xd0>
    bbac:	e59430a4 	ldr	r3, [r4, #164]
    bbb0:	e3530000 	cmp	r3, #0	; 0x0
    bbb4:	1a00002e 	bne	bc74 <RemoteFocusd_StepByStepSearch+0x18c>
    bbb8:	e59d2030 	ldr	r2, [sp, #48]
    bbbc:	e59f10c8 	ldr	r1, [pc, #200]	; bc8c <RemoteFocusd_StepByStepSearch+0x1a4>
    bbc0:	e1a00005 	mov	r0, r5
    bbc4:	ebfff551 	bl	9110 <_init+0x1a8>
    bbc8:	e59f00c0 	ldr	r0, [pc, #192]	; bc90 <RemoteFocusd_StepByStepSearch+0x1a8>
    bbcc:	ebfff540 	bl	90d4 <_init+0x16c>
    bbd0:	e59d2030 	ldr	r2, [sp, #48]
    bbd4:	e59430a8 	ldr	r3, [r4, #168]
    bbd8:	e5941108 	ldr	r1, [r4, #264]
    bbdc:	e0833002 	add	r3, r3, r2
    bbe0:	e58430a8 	str	r3, [r4, #168]
    bbe4:	e5912008 	ldr	r2, [r1, #8]
    bbe8:	e59f00a4 	ldr	r0, [pc, #164]	; bc94 <RemoteFocusd_StepByStepSearch+0x1ac>
    bbec:	e1a01007 	mov	r1, r7
    bbf0:	e584209c 	str	r2, [r4, #156]
    bbf4:	ebfff55a 	bl	9164 <_init+0x1fc>
    bbf8:	e59430b0 	ldr	r3, [r4, #176]
    bbfc:	e3530004 	cmp	r3, #4	; 0x4
    bc00:	0594309c 	ldreq	r3, [r4, #156]
    bc04:	1594309c 	ldrne	r3, [r4, #156]
    bc08:	058a3000 	streq	r3, [sl]
    bc0c:	e1590003 	cmp	r9, r3
    bc10:	31a09003 	movcc	r9, r3
    bc14:	e59d3030 	ldr	r3, [sp, #48]
    bc18:	358d7004 	strcc	r7, [sp, #4]
    bc1c:	e1560008 	cmp	r6, r8
    bc20:	e08aa00b 	add	sl, sl, fp
    bc24:	e0888003 	add	r8, r8, r3
    bc28:	e0877003 	add	r7, r7, r3
    bc2c:	2affffde 	bcs	bbac <RemoteFocusd_StepByStepSearch+0xc4>
    bc30:	e59d1004 	ldr	r1, [sp, #4]
    bc34:	e59430a8 	ldr	r3, [r4, #168]
    bc38:	e0612006 	rsb	r2, r1, r6
    bc3c:	e0622003 	rsb	r2, r2, r3
    bc40:	e1a01005 	mov	r1, r5
    bc44:	e1a00004 	mov	r0, r4
    bc48:	ebffff0f 	bl	b88c <RemoteFocusd_MoveFocusMotor>
    bc4c:	e2505000 	subs	r5, r0, #0	; 0x0
    bc50:	1affffb2 	bne	bb20 <RemoteFocusd_StepByStepSearch+0x38>
    bc54:	e1a01009 	mov	r1, r9
    bc58:	e59d2004 	ldr	r2, [sp, #4]
    bc5c:	e59f0034 	ldr	r0, [pc, #52]	; bc98 <RemoteFocusd_StepByStepSearch+0x1b0>
    bc60:	ebfff53f 	bl	9164 <_init+0x1fc>
    bc64:	e5943108 	ldr	r3, [r4, #264]
    bc68:	e1a00005 	mov	r0, r5
    bc6c:	e5835004 	str	r5, [r3, #4]
    bc70:	eaffffa5 	b	bb0c <RemoteFocusd_StepByStepSearch+0x24>
    bc74:	e59f0020 	ldr	r0, [pc, #32]	; bc9c <RemoteFocusd_StepByStepSearch+0x1b4>
    bc78:	ebfff55d 	bl	91f4 <_init+0x28c>
    bc7c:	eaffffa7 	b	bb20 <RemoteFocusd_StepByStepSearch+0x38>
    bc80:	000f4240 	.word	0x000f4240
    bc84:	00018a8c 	.word	0x00018a8c
    bc88:	0000f0d0 	.word	0x0000f0d0
    bc8c:	40044d06 	.word	0x40044d06
    bc90:	00030d40 	.word	0x00030d40
    bc94:	0000f124 	.word	0x0000f124
    bc98:	0000f154 	.word	0x0000f154
    bc9c:	0000f0fc 	.word	0x0000f0fc

0000bca0 <RemoteFocusd_FocusStepHandler>:
    bca0:	e92d40f0 	push	{r4, r5, r6, r7, lr}
    bca4:	e1a05000 	mov	r5, r0
    bca8:	e5900134 	ldr	r0, [r0, #308]
    bcac:	e24dd004 	sub	sp, sp, #4	; 0x4
    bcb0:	e3500000 	cmp	r0, #0	; 0x0
    bcb4:	e1a07002 	mov	r7, r2
    bcb8:	e1a06003 	mov	r6, r3
    bcbc:	1a000001 	bne	bcc8 <RemoteFocusd_FocusStepHandler+0x28>
    bcc0:	e28dd004 	add	sp, sp, #4	; 0x4
    bcc4:	e8bd80f0 	pop	{r4, r5, r6, r7, pc}
    bcc8:	e1a00001 	mov	r0, r1
    bccc:	e59f103c 	ldr	r1, [pc, #60]	; bd10 <RemoteFocusd_FocusStepHandler+0x70>
    bcd0:	ebfff50e 	bl	9110 <_init+0x1a8>
    bcd4:	e1a04000 	mov	r4, r0
    bcd8:	e1a01000 	mov	r1, r0
    bcdc:	e59f0030 	ldr	r0, [pc, #48]	; bd14 <RemoteFocusd_FocusStepHandler+0x74>
    bce0:	ebfff51f 	bl	9164 <_init+0x1fc>
    bce4:	e3540000 	cmp	r4, #0	; 0x0
    bce8:	dafffff4 	ble	bcc0 <RemoteFocusd_FocusStepHandler+0x20>
    bcec:	e3560000 	cmp	r6, #0	; 0x0
    bcf0:	159530a8 	ldrne	r3, [r5, #168]
    bcf4:	059530a8 	ldreq	r3, [r5, #168]
    bcf8:	e0640007 	rsb	r0, r4, r7
    bcfc:	10833000 	addne	r3, r3, r0
    bd00:	00603003 	rsbeq	r3, r0, r3
    bd04:	158530a8 	strne	r3, [r5, #168]
    bd08:	058530a8 	streq	r3, [r5, #168]
    bd0c:	eaffffeb 	b	bcc0 <RemoteFocusd_FocusStepHandler+0x20>
    bd10:	00004d04 	.word	0x00004d04
    bd14:	0000f18c 	.word	0x0000f18c

0000bd18 <RemoteFocusd_ZoomStepHandler>:
    bd18:	e92d40f0 	push	{r4, r5, r6, r7, lr}
    bd1c:	e1a05000 	mov	r5, r0
    bd20:	e5900130 	ldr	r0, [r0, #304]
    bd24:	e24dd004 	sub	sp, sp, #4	; 0x4
    bd28:	e3500000 	cmp	r0, #0	; 0x0
    bd2c:	e1a07002 	mov	r7, r2
    bd30:	e1a06003 	mov	r6, r3
    bd34:	1a000001 	bne	bd40 <RemoteFocusd_ZoomStepHandler+0x28>
    bd38:	e28dd004 	add	sp, sp, #4	; 0x4
    bd3c:	e8bd80f0 	pop	{r4, r5, r6, r7, pc}
    bd40:	e1a00001 	mov	r0, r1
    bd44:	e59f103c 	ldr	r1, [pc, #60]	; bd88 <RemoteFocusd_ZoomStepHandler+0x70>
    bd48:	ebfff4f0 	bl	9110 <_init+0x1a8>
    bd4c:	e1a04000 	mov	r4, r0
    bd50:	e1a01000 	mov	r1, r0
    bd54:	e59f0030 	ldr	r0, [pc, #48]	; bd8c <RemoteFocusd_ZoomStepHandler+0x74>
    bd58:	ebfff501 	bl	9164 <_init+0x1fc>
    bd5c:	e3540000 	cmp	r4, #0	; 0x0
    bd60:	dafffff4 	ble	bd38 <RemoteFocusd_ZoomStepHandler+0x20>
    bd64:	e3560000 	cmp	r6, #0	; 0x0
    bd68:	159530e0 	ldrne	r3, [r5, #224]
    bd6c:	059530e0 	ldreq	r3, [r5, #224]
    bd70:	e0640007 	rsb	r0, r4, r7
    bd74:	10833000 	addne	r3, r3, r0
    bd78:	00603003 	rsbeq	r3, r0, r3
    bd7c:	158530e0 	strne	r3, [r5, #224]
    bd80:	058530e0 	streq	r3, [r5, #224]
    bd84:	eaffffeb 	b	bd38 <RemoteFocusd_ZoomStepHandler+0x20>
    bd88:	00004d04 	.word	0x00004d04
    bd8c:	0000f1b8 	.word	0x0000f1b8

0000bd90 <RemoteFocusd_FocusDeleteLogFile>:
    bd90:	e52de004 	push	{lr}		; (str lr, [sp, #-4]!)
    bd94:	e59f0028 	ldr	r0, [pc, #40]	; bdc4 <RemoteFocusd_FocusDeleteLogFile+0x34>
    bd98:	e24dd004 	sub	sp, sp, #4	; 0x4
    bd9c:	ebfff505 	bl	91b8 <_init+0x250>
    bda0:	e3500000 	cmp	r0, #0	; 0x0
    bda4:	ba000002 	blt	bdb4 <RemoteFocusd_FocusDeleteLogFile+0x24>
    bda8:	e28dd004 	add	sp, sp, #4	; 0x4
    bdac:	e49de004 	pop	{lr}		; (ldr lr, [sp], #4)
    bdb0:	eafff479 	b	8f9c <_init+0x34>
    bdb4:	e59f000c 	ldr	r0, [pc, #12]	; bdc8 <RemoteFocusd_FocusDeleteLogFile+0x38>
    bdb8:	e28dd004 	add	sp, sp, #4	; 0x4
    bdbc:	e49de004 	pop	{lr}		; (ldr lr, [sp], #4)
    bdc0:	eafff50b 	b	91f4 <_init+0x28c>
    bdc4:	0000ed10 	.word	0x0000ed10
    bdc8:	0000f1e4 	.word	0x0000f1e4

0000bdcc <RemoteFocusd_FocusCreateLogFile>:
    bdcc:	e52de004 	push	{lr}		; (str lr, [sp, #-4]!)
    bdd0:	e59f0034 	ldr	r0, [pc, #52]	; be0c <RemoteFocusd_FocusCreateLogFile+0x40>
    bdd4:	e24dd004 	sub	sp, sp, #4	; 0x4
    bdd8:	e59f1030 	ldr	r1, [pc, #48]	; be10 <RemoteFocusd_FocusCreateLogFile+0x44>
    bddc:	e3a02f69 	mov	r2, #420	; 0x1a4
    bde0:	ebfff46a 	bl	8f90 <_init+0x28>
    bde4:	e3500000 	cmp	r0, #0	; 0x0
    bde8:	ba000003 	blt	bdfc <RemoteFocusd_FocusCreateLogFile+0x30>
    bdec:	ebfff4ee 	bl	91ac <_init+0x244>
    bdf0:	e28dd004 	add	sp, sp, #4	; 0x4
    bdf4:	e49de004 	pop	{lr}		; (ldr lr, [sp], #4)
    bdf8:	eafff467 	b	8f9c <_init+0x34>
    bdfc:	e59f0010 	ldr	r0, [pc, #16]	; be14 <RemoteFocusd_FocusCreateLogFile+0x48>
    be00:	e28dd004 	add	sp, sp, #4	; 0x4
    be04:	e49de004 	pop	{lr}		; (ldr lr, [sp], #4)
    be08:	eafff4f9 	b	91f4 <_init+0x28c>
    be0c:	0000ed10 	.word	0x0000ed10
    be10:	00000241 	.word	0x00000241
    be14:	0000f21c 	.word	0x0000f21c

0000be18 <RemoteFocusd_ZoomDeleteLogFile>:
    be18:	e52de004 	push	{lr}		; (str lr, [sp, #-4]!)
    be1c:	e59f0028 	ldr	r0, [pc, #40]	; be4c <RemoteFocusd_ZoomDeleteLogFile+0x34>
    be20:	e24dd004 	sub	sp, sp, #4	; 0x4
    be24:	ebfff4e3 	bl	91b8 <_init+0x250>
    be28:	e3500000 	cmp	r0, #0	; 0x0
    be2c:	ba000002 	blt	be3c <RemoteFocusd_ZoomDeleteLogFile+0x24>
    be30:	e28dd004 	add	sp, sp, #4	; 0x4
    be34:	e49de004 	pop	{lr}		; (ldr lr, [sp], #4)
    be38:	eafff457 	b	8f9c <_init+0x34>
    be3c:	e59f000c 	ldr	r0, [pc, #12]	; be50 <RemoteFocusd_ZoomDeleteLogFile+0x38>
    be40:	e28dd004 	add	sp, sp, #4	; 0x4
    be44:	e49de004 	pop	{lr}		; (ldr lr, [sp], #4)
    be48:	eafff4e9 	b	91f4 <_init+0x28c>
    be4c:	0000ed3c 	.word	0x0000ed3c
    be50:	0000f1e4 	.word	0x0000f1e4

0000be54 <RemoteFocusd_ZoomCreateLogFile>:
    be54:	e52de004 	push	{lr}		; (str lr, [sp, #-4]!)
    be58:	e59f0034 	ldr	r0, [pc, #52]	; be94 <RemoteFocusd_ZoomCreateLogFile+0x40>
    be5c:	e24dd004 	sub	sp, sp, #4	; 0x4
    be60:	e59f1030 	ldr	r1, [pc, #48]	; be98 <RemoteFocusd_ZoomCreateLogFile+0x44>
    be64:	e3a02f69 	mov	r2, #420	; 0x1a4
    be68:	ebfff448 	bl	8f90 <_init+0x28>
    be6c:	e3500000 	cmp	r0, #0	; 0x0
    be70:	ba000003 	blt	be84 <RemoteFocusd_ZoomCreateLogFile+0x30>
    be74:	ebfff4cc 	bl	91ac <_init+0x244>
    be78:	e28dd004 	add	sp, sp, #4	; 0x4
    be7c:	e49de004 	pop	{lr}		; (ldr lr, [sp], #4)
    be80:	eafff445 	b	8f9c <_init+0x34>
    be84:	e59f0010 	ldr	r0, [pc, #16]	; be9c <RemoteFocusd_ZoomCreateLogFile+0x48>
    be88:	e28dd004 	add	sp, sp, #4	; 0x4
    be8c:	e49de004 	pop	{lr}		; (ldr lr, [sp], #4)
    be90:	eafff4d7 	b	91f4 <_init+0x28c>
    be94:	0000ed3c 	.word	0x0000ed3c
    be98:	00000241 	.word	0x00000241
    be9c:	0000f21c 	.word	0x0000f21c

0000bea0 <RemoteFocusd_SaveConfigFile>:
    bea0:	e92d4070 	push	{r4, r5, r6, lr}
    bea4:	e2805e11 	add	r5, r0, #272	; 0x110
    bea8:	e1a04000 	mov	r4, r0
    beac:	e1a00005 	mov	r0, r5
    beb0:	ebfff4db 	bl	9224 <_init+0x2bc>
    beb4:	e59f0070 	ldr	r0, [pc, #112]	; bf2c <RemoteFocusd_SaveConfigFile+0x8c>
    beb8:	e59f1070 	ldr	r1, [pc, #112]	; bf30 <RemoteFocusd_SaveConfigFile+0x90>
    bebc:	ebfff469 	bl	9068 <_init+0x100>
    bec0:	e2506000 	subs	r6, r0, #0	; 0x0
    bec4:	1a000003 	bne	bed8 <RemoteFocusd_SaveConfigFile+0x38>
    bec8:	e59f0064 	ldr	r0, [pc, #100]	; bf34 <RemoteFocusd_SaveConfigFile+0x94>
    becc:	ebfff4c8 	bl	91f4 <_init+0x28c>
    bed0:	e3e00000 	mvn	r0, #0	; 0x0
    bed4:	e8bd8070 	pop	{r4, r5, r6, pc}
    bed8:	e5943130 	ldr	r3, [r4, #304]
    bedc:	e3530000 	cmp	r3, #0	; 0x0
    bee0:	1a000008 	bne	bf08 <RemoteFocusd_SaveConfigFile+0x68>
    bee4:	e5943134 	ldr	r3, [r4, #308]
    bee8:	e3530000 	cmp	r3, #0	; 0x0
    beec:	1a000009 	bne	bf18 <RemoteFocusd_SaveConfigFile+0x78>
    bef0:	e1a00006 	mov	r0, r6
    bef4:	ebfff44f 	bl	9038 <_init+0xd0>
    bef8:	e1a00005 	mov	r0, r5
    befc:	ebfff495 	bl	9158 <_init+0x1f0>
    bf00:	e3a00000 	mov	r0, #0	; 0x0
    bf04:	e8bd8070 	pop	{r4, r5, r6, pc}
    bf08:	e59f1028 	ldr	r1, [pc, #40]	; bf38 <RemoteFocusd_SaveConfigFile+0x98>
    bf0c:	e59420e0 	ldr	r2, [r4, #224]
    bf10:	ebfff4ab 	bl	91c4 <_init+0x25c>
    bf14:	eafffff2 	b	bee4 <RemoteFocusd_SaveConfigFile+0x44>
    bf18:	e59420a8 	ldr	r2, [r4, #168]
    bf1c:	e1a00006 	mov	r0, r6
    bf20:	e59f1014 	ldr	r1, [pc, #20]	; bf3c <RemoteFocusd_SaveConfigFile+0x9c>
    bf24:	ebfff4a6 	bl	91c4 <_init+0x25c>
    bf28:	eafffff0 	b	bef0 <RemoteFocusd_SaveConfigFile+0x50>
    bf2c:	0000e208 	.word	0x0000e208
    bf30:	0000e200 	.word	0x0000e200
    bf34:	0000e238 	.word	0x0000e238
    bf38:	0000f254 	.word	0x0000f254
    bf3c:	0000f264 	.word	0x0000f264

0000bf40 <RemoteFocusd_PerformFocusScan>:
    bf40:	e92d40f0 	push	{r4, r5, r6, r7, lr}
    bf44:	e5903134 	ldr	r3, [r0, #308]
    bf48:	e24dd00c 	sub	sp, sp, #12	; 0xc
    bf4c:	e3530000 	cmp	r3, #0	; 0x0
    bf50:	e1a05000 	mov	r5, r0
    bf54:	e1a06001 	mov	r6, r1
    bf58:	0a00003b 	beq	c04c <RemoteFocusd_PerformFocusScan+0x10c>
    bf5c:	e59030cc 	ldr	r3, [r0, #204]
    bf60:	e3530000 	cmp	r3, #0	; 0x0
    bf64:	01a07003 	moveq	r7, r3
    bf68:	0a00000d 	beq	bfa4 <RemoteFocusd_PerformFocusScan+0x64>
    bf6c:	e5904108 	ldr	r4, [r0, #264]
    bf70:	e3a03001 	mov	r3, #1	; 0x1
    bf74:	e584300c 	str	r3, [r4, #12]
    bf78:	e5843010 	str	r3, [r4, #16]
    bf7c:	ea000002 	b	bf8c <RemoteFocusd_PerformFocusScan+0x4c>
    bf80:	e594300c 	ldr	r3, [r4, #12]
    bf84:	e3530001 	cmp	r3, #1	; 0x1
    bf88:	1a000004 	bne	bfa0 <RemoteFocusd_PerformFocusScan+0x60>
    bf8c:	e59f01c8 	ldr	r0, [pc, #456]	; c15c <RemoteFocusd_PerformFocusScan+0x21c>
    bf90:	ebfff44f 	bl	90d4 <_init+0x16c>
    bf94:	e5943010 	ldr	r3, [r4, #16]
    bf98:	e3530001 	cmp	r3, #1	; 0x1
    bf9c:	0afffff7 	beq	bf80 <RemoteFocusd_PerformFocusScan+0x40>
    bfa0:	e3a07001 	mov	r7, #1	; 0x1
    bfa4:	e59f21b4 	ldr	r2, [pc, #436]	; c160 <RemoteFocusd_PerformFocusScan+0x220>
    bfa8:	e59f01b4 	ldr	r0, [pc, #436]	; c164 <RemoteFocusd_PerformFocusScan+0x224>
    bfac:	e3a01000 	mov	r1, #0	; 0x0
    bfb0:	ebfff435 	bl	908c <_init+0x124>
    bfb4:	e5953130 	ldr	r3, [r5, #304]
    bfb8:	e59520e0 	ldr	r2, [r5, #224]
    bfbc:	e3530000 	cmp	r3, #0	; 0x0
    bfc0:	1a000048 	bne	c0e8 <RemoteFocusd_PerformFocusScan+0x1a8>
    bfc4:	e59f119c 	ldr	r1, [pc, #412]	; c168 <RemoteFocusd_PerformFocusScan+0x228>
    bfc8:	e1a00006 	mov	r0, r6
    bfcc:	ebfff44f 	bl	9110 <_init+0x1a8>
    bfd0:	e3a04000 	mov	r4, #0	; 0x0
    bfd4:	e59f1190 	ldr	r1, [pc, #400]	; c16c <RemoteFocusd_PerformFocusScan+0x22c>
    bfd8:	e59f2190 	ldr	r2, [pc, #400]	; c170 <RemoteFocusd_PerformFocusScan+0x230>
    bfdc:	e1a00006 	mov	r0, r6
    bfe0:	ebfff44a 	bl	9110 <_init+0x1a8>
    bfe4:	e58540a8 	str	r4, [r5, #168]
    bfe8:	e59f0184 	ldr	r0, [pc, #388]	; c174 <RemoteFocusd_PerformFocusScan+0x234>
    bfec:	ebfff480 	bl	91f4 <_init+0x28c>
    bff0:	e59520c4 	ldr	r2, [r5, #196]
    bff4:	e59530c8 	ldr	r3, [r5, #200]
    bff8:	e3a0c006 	mov	ip, #6	; 0x6
    bffc:	e0623003 	rsb	r3, r2, r3
    c000:	e1a00005 	mov	r0, r5
    c004:	e1a01006 	mov	r1, r6
    c008:	e58dc000 	str	ip, [sp]
    c00c:	ebfffeb5 	bl	bae8 <RemoteFocusd_StepByStepSearch>
    c010:	e1500004 	cmp	r0, r4
    c014:	0a00000e 	beq	c054 <RemoteFocusd_PerformFocusScan+0x114>
    c018:	e59f2158 	ldr	r2, [pc, #344]	; c178 <RemoteFocusd_PerformFocusScan+0x238>
    c01c:	e5923000 	ldr	r3, [r2]
    c020:	e1530004 	cmp	r3, r4
    c024:	13a03000 	movne	r3, #0	; 0x0
    c028:	02073001 	andeq	r3, r7, #1	; 0x1
    c02c:	e1530004 	cmp	r3, r4
    c030:	0a000005 	beq	c04c <RemoteFocusd_PerformFocusScan+0x10c>
    c034:	e5953134 	ldr	r3, [r5, #308]
    c038:	e1530004 	cmp	r3, r4
    c03c:	15952108 	ldrne	r2, [r5, #264]
    c040:	13a03001 	movne	r3, #1	; 0x1
    c044:	1582300c 	strne	r3, [r2, #12]
    c048:	15824010 	strne	r4, [r2, #16]
    c04c:	e28dd00c 	add	sp, sp, #12	; 0xc
    c050:	e8bd80f0 	pop	{r4, r5, r6, r7, pc}
    c054:	e59510c4 	ldr	r1, [r5, #196]
    c058:	e59520a8 	ldr	r2, [r5, #168]
    c05c:	e2813004 	add	r3, r1, #4	; 0x4
    c060:	e1520003 	cmp	r2, r3
    c064:	30614002 	rsbcc	r4, r1, r2
    c068:	3a000004 	bcc	c080 <RemoteFocusd_PerformFocusScan+0x140>
    c06c:	e59530c8 	ldr	r3, [r5, #200]
    c070:	e0623003 	rsb	r3, r2, r3
    c074:	e3530003 	cmp	r3, #3	; 0x3
    c078:	83a04004 	movhi	r4, #4	; 0x4
    c07c:	92634008 	rsbls	r4, r3, #8	; 0x8
    c080:	e59f00f4 	ldr	r0, [pc, #244]	; c17c <RemoteFocusd_PerformFocusScan+0x23c>
    c084:	ebfff45a 	bl	91f4 <_init+0x28c>
    c088:	e59520a8 	ldr	r2, [r5, #168]
    c08c:	e1a01006 	mov	r1, r6
    c090:	e0642002 	rsb	r2, r4, r2
    c094:	e1a00005 	mov	r0, r5
    c098:	e3a04001 	mov	r4, #1	; 0x1
    c09c:	e3a03008 	mov	r3, #8	; 0x8
    c0a0:	e58d4000 	str	r4, [sp]
    c0a4:	ebfffe8f 	bl	bae8 <RemoteFocusd_StepByStepSearch>
    c0a8:	e3500000 	cmp	r0, #0	; 0x0
    c0ac:	0a00001c 	beq	c124 <RemoteFocusd_PerformFocusScan+0x1e4>
    c0b0:	e59f20c0 	ldr	r2, [pc, #192]	; c178 <RemoteFocusd_PerformFocusScan+0x238>
    c0b4:	e5923000 	ldr	r3, [r2]
    c0b8:	e3530000 	cmp	r3, #0	; 0x0
    c0bc:	13a03000 	movne	r3, #0	; 0x0
    c0c0:	02073001 	andeq	r3, r7, #1	; 0x1
    c0c4:	e3530000 	cmp	r3, #0	; 0x0
    c0c8:	0affffdf 	beq	c04c <RemoteFocusd_PerformFocusScan+0x10c>
    c0cc:	e5953134 	ldr	r3, [r5, #308]
    c0d0:	e3530000 	cmp	r3, #0	; 0x0
    c0d4:	15952108 	ldrne	r2, [r5, #264]
    c0d8:	13a03000 	movne	r3, #0	; 0x0
    c0dc:	1582400c 	strne	r4, [r2, #12]
    c0e0:	15823010 	strne	r3, [r2, #16]
    c0e4:	eaffffd8 	b	c04c <RemoteFocusd_PerformFocusScan+0x10c>
    c0e8:	e3a03005 	mov	r3, #5	; 0x5
    c0ec:	e58530e4 	str	r3, [r5, #228]
    c0f0:	e2433004 	sub	r3, r3, #4	; 0x4
    c0f4:	e58520f0 	str	r2, [r5, #240]
    c0f8:	e58530d8 	str	r3, [r5, #216]
    c0fc:	e5950128 	ldr	r0, [r5, #296]
    c100:	e28510d8 	add	r1, r5, #216	; 0xd8
    c104:	e3a02004 	mov	r2, #4	; 0x4
    c108:	e283303f 	add	r3, r3, #63	; 0x3f
    c10c:	ebfff432 	bl	91dc <_init+0x274>
    c110:	e3500000 	cmp	r0, #0	; 0x0
    c114:	aaffffaa 	bge	bfc4 <RemoteFocusd_PerformFocusScan+0x84>
    c118:	e59f0060 	ldr	r0, [pc, #96]	; c180 <RemoteFocusd_PerformFocusScan+0x240>
    c11c:	ebfff434 	bl	91f4 <_init+0x28c>
    c120:	eaffffa7 	b	bfc4 <RemoteFocusd_PerformFocusScan+0x84>
    c124:	e59f204c 	ldr	r2, [pc, #76]	; c178 <RemoteFocusd_PerformFocusScan+0x238>
    c128:	e58500b0 	str	r0, [r5, #176]
    c12c:	e5923000 	ldr	r3, [r2]
    c130:	e3530000 	cmp	r3, #0	; 0x0
    c134:	13a03000 	movne	r3, #0	; 0x0
    c138:	02073001 	andeq	r3, r7, #1	; 0x1
    c13c:	e3530000 	cmp	r3, #0	; 0x0
    c140:	0affffc1 	beq	c04c <RemoteFocusd_PerformFocusScan+0x10c>
    c144:	e5953134 	ldr	r3, [r5, #308]
    c148:	e3530000 	cmp	r3, #0	; 0x0
    c14c:	15953108 	ldrne	r3, [r5, #264]
    c150:	1583400c 	strne	r4, [r3, #12]
    c154:	15830010 	strne	r0, [r3, #16]
    c158:	eaffffbb 	b	c04c <RemoteFocusd_PerformFocusScan+0x10c>
    c15c:	004c4b40 	.word	0x004c4b40
    c160:	00001b30 	.word	0x00001b30
    c164:	00018a8c 	.word	0x00018a8c
    c168:	00004d01 	.word	0x00004d01
    c16c:	40044d06 	.word	0x40044d06
    c170:	00000d5a 	.word	0x00000d5a
    c174:	0000f274 	.word	0x0000f274
    c178:	00017630 	.word	0x00017630
    c17c:	0000f298 	.word	0x0000f298
    c180:	0000e614 	.word	0x0000e614

0000c184 <RemoteFocusd_PerformAutoFocus>:
    c184:	e92d45f0 	push	{r4, r5, r6, r7, r8, sl, lr}
    c188:	e5903134 	ldr	r3, [r0, #308]
    c18c:	e24dd00c 	sub	sp, sp, #12	; 0xc
    c190:	e3530000 	cmp	r3, #0	; 0x0
    c194:	e1a05000 	mov	r5, r0
    c198:	e1a08001 	mov	r8, r1
    c19c:	0a000040 	beq	c2a4 <RemoteFocusd_PerformAutoFocus+0x120>
    c1a0:	e59020cc 	ldr	r2, [r0, #204]
    c1a4:	e59070c4 	ldr	r7, [r0, #196]
    c1a8:	e59030c8 	ldr	r3, [r0, #200]
    c1ac:	e3520000 	cmp	r2, #0	; 0x0
    c1b0:	e0676003 	rsb	r6, r7, r3
    c1b4:	01a0a002 	moveq	sl, r2
    c1b8:	0a00000d 	beq	c1f4 <RemoteFocusd_PerformAutoFocus+0x70>
    c1bc:	e5904108 	ldr	r4, [r0, #264]
    c1c0:	e3a03001 	mov	r3, #1	; 0x1
    c1c4:	e584300c 	str	r3, [r4, #12]
    c1c8:	e5843010 	str	r3, [r4, #16]
    c1cc:	ea000002 	b	c1dc <RemoteFocusd_PerformAutoFocus+0x58>
    c1d0:	e594300c 	ldr	r3, [r4, #12]
    c1d4:	e3530001 	cmp	r3, #1	; 0x1
    c1d8:	1a000004 	bne	c1f0 <RemoteFocusd_PerformAutoFocus+0x6c>
    c1dc:	e59f01ec 	ldr	r0, [pc, #492]	; c3d0 <RemoteFocusd_PerformAutoFocus+0x24c>
    c1e0:	ebfff3bb 	bl	90d4 <_init+0x16c>
    c1e4:	e5943010 	ldr	r3, [r4, #16]
    c1e8:	e3530001 	cmp	r3, #1	; 0x1
    c1ec:	0afffff7 	beq	c1d0 <RemoteFocusd_PerformAutoFocus+0x4c>
    c1f0:	e3a0a001 	mov	sl, #1	; 0x1
    c1f4:	e3560d09 	cmp	r6, #576	; 0x240
    c1f8:	9a00000f 	bls	c23c <RemoteFocusd_PerformAutoFocus+0xb8>
    c1fc:	e59510c4 	ldr	r1, [r5, #196]
    c200:	e59520ac 	ldr	r2, [r5, #172]
    c204:	e2813e12 	add	r3, r1, #288	; 0x120
    c208:	e1520003 	cmp	r2, r3
    c20c:	30613002 	rsbcc	r3, r1, r2
    c210:	30637002 	rsbcc	r7, r3, r2
    c214:	33a06d09 	movcc	r6, #576	; 0x240
    c218:	3a000007 	bcc	c23c <RemoteFocusd_PerformAutoFocus+0xb8>
    c21c:	e59530c8 	ldr	r3, [r5, #200]
    c220:	e0623003 	rsb	r3, r2, r3
    c224:	e3530e12 	cmp	r3, #288	; 0x120
    c228:	32633d09 	rsbcc	r3, r3, #576	; 0x240
    c22c:	30637002 	rsbcc	r7, r3, r2
    c230:	33a06d09 	movcc	r6, #576	; 0x240
    c234:	22427e12 	subcs	r7, r2, #288	; 0x120
    c238:	23a06d09 	movcs	r6, #576	; 0x240
    c23c:	e59f0190 	ldr	r0, [pc, #400]	; c3d4 <RemoteFocusd_PerformAutoFocus+0x250>
    c240:	ebfff3eb 	bl	91f4 <_init+0x28c>
    c244:	e3a04018 	mov	r4, #24	; 0x18
    c248:	e1a02007 	mov	r2, r7
    c24c:	e1a03006 	mov	r3, r6
    c250:	e1a00005 	mov	r0, r5
    c254:	e1a01008 	mov	r1, r8
    c258:	e58d4000 	str	r4, [sp]
    c25c:	ebfffe21 	bl	bae8 <RemoteFocusd_StepByStepSearch>
    c260:	e3500000 	cmp	r0, #0	; 0x0
    c264:	0a000010 	beq	c2ac <RemoteFocusd_PerformAutoFocus+0x128>
    c268:	e59f2168 	ldr	r2, [pc, #360]	; c3d8 <RemoteFocusd_PerformAutoFocus+0x254>
    c26c:	e5923000 	ldr	r3, [r2]
    c270:	e3530000 	cmp	r3, #0	; 0x0
    c274:	13a03000 	movne	r3, #0	; 0x0
    c278:	020a3001 	andeq	r3, sl, #1	; 0x1
    c27c:	e3530000 	cmp	r3, #0	; 0x0
    c280:	0a000007 	beq	c2a4 <RemoteFocusd_PerformAutoFocus+0x120>
    c284:	e5953134 	ldr	r3, [r5, #308]
    c288:	e3530000 	cmp	r3, #0	; 0x0
    c28c:	0a000004 	beq	c2a4 <RemoteFocusd_PerformAutoFocus+0x120>
    c290:	e5953108 	ldr	r3, [r5, #264]
    c294:	e3a02001 	mov	r2, #1	; 0x1
    c298:	e3a01000 	mov	r1, #0	; 0x0
    c29c:	e583200c 	str	r2, [r3, #12]
    c2a0:	e5831010 	str	r1, [r3, #16]
    c2a4:	e28dd00c 	add	sp, sp, #12	; 0xc
    c2a8:	e8bd85f0 	pop	{r4, r5, r6, r7, r8, sl, pc}
    c2ac:	e59510c4 	ldr	r1, [r5, #196]
    c2b0:	e59520a8 	ldr	r2, [r5, #168]
    c2b4:	e2813018 	add	r3, r1, #24	; 0x18
    c2b8:	e1520003 	cmp	r2, r3
    c2bc:	30614002 	rsbcc	r4, r1, r2
    c2c0:	3a000003 	bcc	c2d4 <RemoteFocusd_PerformAutoFocus+0x150>
    c2c4:	e59530c8 	ldr	r3, [r5, #200]
    c2c8:	e0623003 	rsb	r3, r2, r3
    c2cc:	e3530017 	cmp	r3, #23	; 0x17
    c2d0:	92634030 	rsbls	r4, r3, #48	; 0x30
    c2d4:	e59f0100 	ldr	r0, [pc, #256]	; c3dc <RemoteFocusd_PerformAutoFocus+0x258>
    c2d8:	ebfff3c5 	bl	91f4 <_init+0x28c>
    c2dc:	e59520a8 	ldr	r2, [r5, #168]
    c2e0:	e3a0c006 	mov	ip, #6	; 0x6
    c2e4:	e0642002 	rsb	r2, r4, r2
    c2e8:	e1a00005 	mov	r0, r5
    c2ec:	e1a01008 	mov	r1, r8
    c2f0:	e3a03030 	mov	r3, #48	; 0x30
    c2f4:	e58dc000 	str	ip, [sp]
    c2f8:	ebfffdfa 	bl	bae8 <RemoteFocusd_StepByStepSearch>
    c2fc:	e3500000 	cmp	r0, #0	; 0x0
    c300:	1affffd8 	bne	c268 <RemoteFocusd_PerformAutoFocus+0xe4>
    c304:	e59510c4 	ldr	r1, [r5, #196]
    c308:	e59520a8 	ldr	r2, [r5, #168]
    c30c:	e2813004 	add	r3, r1, #4	; 0x4
    c310:	e1520003 	cmp	r2, r3
    c314:	30614002 	rsbcc	r4, r1, r2
    c318:	3a000004 	bcc	c330 <RemoteFocusd_PerformAutoFocus+0x1ac>
    c31c:	e59530c8 	ldr	r3, [r5, #200]
    c320:	e0623003 	rsb	r3, r2, r3
    c324:	e3530003 	cmp	r3, #3	; 0x3
    c328:	83a04004 	movhi	r4, #4	; 0x4
    c32c:	92634008 	rsbls	r4, r3, #8	; 0x8
    c330:	e59f00a8 	ldr	r0, [pc, #168]	; c3e0 <RemoteFocusd_PerformAutoFocus+0x25c>
    c334:	ebfff3ae 	bl	91f4 <_init+0x28c>
    c338:	e59520a8 	ldr	r2, [r5, #168]
    c33c:	e1a01008 	mov	r1, r8
    c340:	e0642002 	rsb	r2, r4, r2
    c344:	e1a00005 	mov	r0, r5
    c348:	e3a04001 	mov	r4, #1	; 0x1
    c34c:	e3a03008 	mov	r3, #8	; 0x8
    c350:	e58d4000 	str	r4, [sp]
    c354:	ebfffde3 	bl	bae8 <RemoteFocusd_StepByStepSearch>
    c358:	e3500000 	cmp	r0, #0	; 0x0
    c35c:	0a00000d 	beq	c398 <RemoteFocusd_PerformAutoFocus+0x214>
    c360:	e59f2070 	ldr	r2, [pc, #112]	; c3d8 <RemoteFocusd_PerformAutoFocus+0x254>
    c364:	e5923000 	ldr	r3, [r2]
    c368:	e3530000 	cmp	r3, #0	; 0x0
    c36c:	13a03000 	movne	r3, #0	; 0x0
    c370:	020a3001 	andeq	r3, sl, #1	; 0x1
    c374:	e3530000 	cmp	r3, #0	; 0x0
    c378:	0affffc9 	beq	c2a4 <RemoteFocusd_PerformAutoFocus+0x120>
    c37c:	e5953134 	ldr	r3, [r5, #308]
    c380:	e3530000 	cmp	r3, #0	; 0x0
    c384:	15952108 	ldrne	r2, [r5, #264]
    c388:	13a03000 	movne	r3, #0	; 0x0
    c38c:	1582400c 	strne	r4, [r2, #12]
    c390:	15823010 	strne	r3, [r2, #16]
    c394:	eaffffc2 	b	c2a4 <RemoteFocusd_PerformAutoFocus+0x120>
    c398:	e59f2038 	ldr	r2, [pc, #56]	; c3d8 <RemoteFocusd_PerformAutoFocus+0x254>
    c39c:	e58500b0 	str	r0, [r5, #176]
    c3a0:	e5923000 	ldr	r3, [r2]
    c3a4:	e3530000 	cmp	r3, #0	; 0x0
    c3a8:	13a03000 	movne	r3, #0	; 0x0
    c3ac:	020a3001 	andeq	r3, sl, #1	; 0x1
    c3b0:	e3530000 	cmp	r3, #0	; 0x0
    c3b4:	0affffba 	beq	c2a4 <RemoteFocusd_PerformAutoFocus+0x120>
    c3b8:	e5953134 	ldr	r3, [r5, #308]
    c3bc:	e3530000 	cmp	r3, #0	; 0x0
    c3c0:	15953108 	ldrne	r3, [r5, #264]
    c3c4:	1583400c 	strne	r4, [r3, #12]
    c3c8:	15830010 	strne	r0, [r3, #16]
    c3cc:	eaffffb4 	b	c2a4 <RemoteFocusd_PerformAutoFocus+0x120>
    c3d0:	004c4b40 	.word	0x004c4b40
    c3d4:	0000f2c8 	.word	0x0000f2c8
    c3d8:	00017630 	.word	0x00017630
    c3dc:	0000f2f8 	.word	0x0000f2f8
    c3e0:	0000f32c 	.word	0x0000f32c

0000c3e4 <RemoteFocusd_PositioningAutoFocus>:
    c3e4:	e92d45f0 	push	{r4, r5, r6, r7, r8, sl, lr}
    c3e8:	e5903134 	ldr	r3, [r0, #308]
    c3ec:	e24dd004 	sub	sp, sp, #4	; 0x4
    c3f0:	e3530000 	cmp	r3, #0	; 0x0
    c3f4:	e1a07000 	mov	r7, r0
    c3f8:	0a00000e 	beq	c438 <RemoteFocusd_PositioningAutoFocus+0x54>
    c3fc:	e5903130 	ldr	r3, [r0, #304]
    c400:	e590a0f0 	ldr	sl, [r0, #240]
    c404:	e3530000 	cmp	r3, #0	; 0x0
    c408:	1a00000c 	bne	c440 <RemoteFocusd_PositioningAutoFocus+0x5c>
    c40c:	e3a03003 	mov	r3, #3	; 0x3
    c410:	e3a02001 	mov	r2, #1	; 0x1
    c414:	e58730b0 	str	r3, [r7, #176]
    c418:	e58720a4 	str	r2, [r7, #164]
    c41c:	e28710a4 	add	r1, r7, #164	; 0xa4
    c420:	e0822003 	add	r2, r2, r3
    c424:	e5970120 	ldr	r0, [r7, #288]
    c428:	e283303d 	add	r3, r3, #61	; 0x3d
    c42c:	ebfff36a 	bl	91dc <_init+0x274>
    c430:	e3500000 	cmp	r0, #0	; 0x0
    c434:	ba000025 	blt	c4d0 <RemoteFocusd_PositioningAutoFocus+0xec>
    c438:	e28dd004 	add	sp, sp, #4	; 0x4
    c43c:	e8bd85f0 	pop	{r4, r5, r6, r7, r8, sl, pc}
    c440:	e59f3098 	ldr	r3, [pc, #152]	; c4e0 <RemoteFocusd_PositioningAutoFocus+0xfc>
    c444:	e0821a93 	umull	r1, r2, r3, sl
    c448:	e1a082a2 	lsr	r8, r2, #5
    c44c:	e358000d 	cmp	r8, #13	; 0xd
    c450:	8a00001a 	bhi	c4c0 <RemoteFocusd_PositioningAutoFocus+0xdc>
    c454:	e59f2088 	ldr	r2, [pc, #136]	; c4e4 <RemoteFocusd_PositioningAutoFocus+0x100>
    c458:	e2883001 	add	r3, r8, #1	; 0x1
    c45c:	e7920103 	ldr	r0, [r2, r3, lsl #2]
    c460:	e7926108 	ldr	r6, [r2, r8, lsl #2]
    c464:	e0600006 	rsb	r0, r0, r6
    c468:	e3500000 	cmp	r0, #0	; 0x0
    c46c:	b2600000 	rsblt	r0, r0, #0	; 0x0
    c470:	eb0004c7 	bl	d794 <__aeabi_ui2d>
    c474:	e3a02000 	mov	r2, #0	; 0x0
    c478:	e59f3068 	ldr	r3, [pc, #104]	; c4e8 <RemoteFocusd_PositioningAutoFocus+0x104>
    c47c:	eb00059f 	bl	db00 <__aeabi_ddiv>
    c480:	e1a04000 	mov	r4, r0
    c484:	e1a00288 	lsl	r0, r8, #5
    c488:	e0400188 	sub	r0, r0, r8, lsl #3
    c48c:	e0680000 	rsb	r0, r8, r0
    c490:	e04a0080 	sub	r0, sl, r0, lsl #1
    c494:	e1a05001 	mov	r5, r1
    c498:	eb0004bd 	bl	d794 <__aeabi_ui2d>
    c49c:	e1a02000 	mov	r2, r0
    c4a0:	e1a03001 	mov	r3, r1
    c4a4:	e1a00004 	mov	r0, r4
    c4a8:	e1a01005 	mov	r1, r5
    c4ac:	eb0004f8 	bl	d894 <__aeabi_dmul>
    c4b0:	eb000613 	bl	dd04 <__aeabi_d2uiz>
    c4b4:	e0800006 	add	r0, r0, r6
    c4b8:	e58700c4 	str	r0, [r7, #196]
    c4bc:	eaffffd2 	b	c40c <RemoteFocusd_PositioningAutoFocus+0x28>
    c4c0:	e59f301c 	ldr	r3, [pc, #28]	; c4e4 <RemoteFocusd_PositioningAutoFocus+0x100>
    c4c4:	e5932038 	ldr	r2, [r3, #56]
    c4c8:	e58020c4 	str	r2, [r0, #196]
    c4cc:	eaffffce 	b	c40c <RemoteFocusd_PositioningAutoFocus+0x28>
    c4d0:	e59f0014 	ldr	r0, [pc, #20]	; c4ec <RemoteFocusd_PositioningAutoFocus+0x108>
    c4d4:	e28dd004 	add	sp, sp, #4	; 0x4
    c4d8:	e8bd45f0 	pop	{r4, r5, r6, r7, r8, sl, lr}
    c4dc:	eafff344 	b	91f4 <_init+0x28c>
    c4e0:	b21642c9 	.word	0xb21642c9
    c4e4:	0000f044 	.word	0x0000f044
    c4e8:	40470000 	.word	0x40470000
    c4ec:	0000e734 	.word	0x0000e734

0000c4f0 <RemoteFocusd_AdjustFocus>:
    c4f0:	e92d45f0 	push	{r4, r5, r6, r7, r8, sl, lr}
    c4f4:	e1a07000 	mov	r7, r0
    c4f8:	e5900134 	ldr	r0, [r0, #308]
    c4fc:	e24dd004 	sub	sp, sp, #4	; 0x4
    c500:	e3500000 	cmp	r0, #0	; 0x0
    c504:	e1a0a001 	mov	sl, r1
    c508:	0a00003b 	beq	c5fc <RemoteFocusd_AdjustFocus+0x10c>
    c50c:	e3510000 	cmp	r1, #0	; 0x0
    c510:	0a00003b 	beq	c604 <RemoteFocusd_AdjustFocus+0x114>
    c514:	e59f3118 	ldr	r3, [pc, #280]	; c634 <RemoteFocusd_AdjustFocus+0x144>
    c518:	e1510003 	cmp	r1, r3
    c51c:	959f2114 	ldrls	r2, [pc, #276]	; c638 <RemoteFocusd_AdjustFocus+0x148>
    c520:	91a0310a 	lslls	r3, sl, #2
    c524:	859f310c 	ldrhi	r3, [pc, #268]	; c638 <RemoteFocusd_AdjustFocus+0x148>
    c528:	859f210c 	ldrhi	r2, [pc, #268]	; c63c <RemoteFocusd_AdjustFocus+0x14c>
    c52c:	90833002 	addls	r3, r3, r2
    c530:	87931002 	ldrhi	r1, [r3, r2]
    c534:	95131004 	ldrls	r1, [r3, #-4]
    c538:	858710ac 	strhi	r1, [r7, #172]
    c53c:	958710ac 	strls	r1, [r7, #172]
    c540:	e3500000 	cmp	r0, #0	; 0x0
    c544:	0a00001e 	beq	c5c4 <RemoteFocusd_AdjustFocus+0xd4>
    c548:	e59f30f0 	ldr	r3, [pc, #240]	; c640 <RemoteFocusd_AdjustFocus+0x150>
    c54c:	e0821a93 	umull	r1, r2, r3, sl
    c550:	e1a082a2 	lsr	r8, r2, #5
    c554:	e358000d 	cmp	r8, #13	; 0xd
    c558:	8a00002d 	bhi	c614 <RemoteFocusd_AdjustFocus+0x124>
    c55c:	e59f20e0 	ldr	r2, [pc, #224]	; c644 <RemoteFocusd_AdjustFocus+0x154>
    c560:	e2883001 	add	r3, r8, #1	; 0x1
    c564:	e7920103 	ldr	r0, [r2, r3, lsl #2]
    c568:	e7926108 	ldr	r6, [r2, r8, lsl #2]
    c56c:	e0600006 	rsb	r0, r0, r6
    c570:	e3500000 	cmp	r0, #0	; 0x0
    c574:	b2600000 	rsblt	r0, r0, #0	; 0x0
    c578:	eb000485 	bl	d794 <__aeabi_ui2d>
    c57c:	e3a02000 	mov	r2, #0	; 0x0
    c580:	e59f30c0 	ldr	r3, [pc, #192]	; c648 <RemoteFocusd_AdjustFocus+0x158>
    c584:	eb00055d 	bl	db00 <__aeabi_ddiv>
    c588:	e1a04000 	mov	r4, r0
    c58c:	e1a00288 	lsl	r0, r8, #5
    c590:	e0400188 	sub	r0, r0, r8, lsl #3
    c594:	e0680000 	rsb	r0, r8, r0
    c598:	e04a0080 	sub	r0, sl, r0, lsl #1
    c59c:	e1a05001 	mov	r5, r1
    c5a0:	eb00047b 	bl	d794 <__aeabi_ui2d>
    c5a4:	e1a02000 	mov	r2, r0
    c5a8:	e1a03001 	mov	r3, r1
    c5ac:	e1a00004 	mov	r0, r4
    c5b0:	e1a01005 	mov	r1, r5
    c5b4:	eb0004b6 	bl	d894 <__aeabi_dmul>
    c5b8:	eb0005d1 	bl	dd04 <__aeabi_d2uiz>
    c5bc:	e0800006 	add	r0, r0, r6
    c5c0:	e58700c4 	str	r0, [r7, #196]
    c5c4:	e59730ac 	ldr	r3, [r7, #172]
    c5c8:	e3a02002 	mov	r2, #2	; 0x2
    c5cc:	e58730bc 	str	r3, [r7, #188]
    c5d0:	e3a03001 	mov	r3, #1	; 0x1
    c5d4:	e58720b0 	str	r2, [r7, #176]
    c5d8:	e58730a4 	str	r3, [r7, #164]
    c5dc:	e58720b4 	str	r2, [r7, #180]
    c5e0:	e28710a4 	add	r1, r7, #164	; 0xa4
    c5e4:	e5970120 	ldr	r0, [r7, #288]
    c5e8:	e0822002 	add	r2, r2, r2
    c5ec:	e283303f 	add	r3, r3, #63	; 0x3f
    c5f0:	ebfff2f9 	bl	91dc <_init+0x274>
    c5f4:	e3500000 	cmp	r0, #0	; 0x0
    c5f8:	ba000009 	blt	c624 <RemoteFocusd_AdjustFocus+0x134>
    c5fc:	e28dd004 	add	sp, sp, #4	; 0x4
    c600:	e8bd85f0 	pop	{r4, r5, r6, r7, r8, sl, pc}
    c604:	e59f302c 	ldr	r3, [pc, #44]	; c638 <RemoteFocusd_AdjustFocus+0x148>
    c608:	e5932000 	ldr	r2, [r3]
    c60c:	e58720ac 	str	r2, [r7, #172]
    c610:	eaffffca 	b	c540 <RemoteFocusd_AdjustFocus+0x50>
    c614:	e59f3028 	ldr	r3, [pc, #40]	; c644 <RemoteFocusd_AdjustFocus+0x154>
    c618:	e5932038 	ldr	r2, [r3, #56]
    c61c:	e58720c4 	str	r2, [r7, #196]
    c620:	eaffffe7 	b	c5c4 <RemoteFocusd_AdjustFocus+0xd4>
    c624:	e59f0020 	ldr	r0, [pc, #32]	; c64c <RemoteFocusd_AdjustFocus+0x15c>
    c628:	e28dd004 	add	sp, sp, #4	; 0x4
    c62c:	e8bd45f0 	pop	{r4, r5, r6, r7, r8, sl, lr}
    c630:	eafff2ef 	b	91f4 <_init+0x28c>
    c634:	00000514 	.word	0x00000514
    c638:	0001763c 	.word	0x0001763c
    c63c:	0000144c 	.word	0x0000144c
    c640:	b21642c9 	.word	0xb21642c9
    c644:	0000f044 	.word	0x0000f044
    c648:	40470000 	.word	0x40470000
    c64c:	0000e734 	.word	0x0000e734

0000c650 <RemoteFocusd_FocusMotorPositioning>:
    c650:	e92d45f0 	push	{r4, r5, r6, r7, r8, sl, lr}
    c654:	e5903134 	ldr	r3, [r0, #308]
    c658:	e24dd004 	sub	sp, sp, #4	; 0x4
    c65c:	e3530000 	cmp	r3, #0	; 0x0
    c660:	e1a07000 	mov	r7, r0
    c664:	e1a04001 	mov	r4, r1
    c668:	1a000001 	bne	c674 <RemoteFocusd_FocusMotorPositioning+0x24>
    c66c:	e28dd004 	add	sp, sp, #4	; 0x4
    c670:	e8bd85f0 	pop	{r4, r5, r6, r7, r8, sl, pc}
    c674:	e59f1100 	ldr	r1, [pc, #256]	; c77c <RemoteFocusd_FocusMotorPositioning+0x12c>
    c678:	e1a00004 	mov	r0, r4
    c67c:	ebfff2a3 	bl	9110 <_init+0x1a8>
    c680:	e59f20f8 	ldr	r2, [pc, #248]	; c780 <RemoteFocusd_FocusMotorPositioning+0x130>
    c684:	e1a00004 	mov	r0, r4
    c688:	e59f10f4 	ldr	r1, [pc, #244]	; c784 <RemoteFocusd_FocusMotorPositioning+0x134>
    c68c:	ebfff29f 	bl	9110 <_init+0x1a8>
    c690:	e5973134 	ldr	r3, [r7, #308]
    c694:	e3a02000 	mov	r2, #0	; 0x0
    c698:	e3530000 	cmp	r3, #0	; 0x0
    c69c:	e58720a8 	str	r2, [r7, #168]
    c6a0:	0afffff1 	beq	c66c <RemoteFocusd_FocusMotorPositioning+0x1c>
    c6a4:	e5973130 	ldr	r3, [r7, #304]
    c6a8:	e597a0f0 	ldr	sl, [r7, #240]
    c6ac:	e1530002 	cmp	r3, r2
    c6b0:	0a00001e 	beq	c730 <RemoteFocusd_FocusMotorPositioning+0xe0>
    c6b4:	e59f30cc 	ldr	r3, [pc, #204]	; c788 <RemoteFocusd_FocusMotorPositioning+0x138>
    c6b8:	e0821a93 	umull	r1, r2, r3, sl
    c6bc:	e1a082a2 	lsr	r8, r2, #5
    c6c0:	e358000d 	cmp	r8, #13	; 0xd
    c6c4:	8a000028 	bhi	c76c <RemoteFocusd_FocusMotorPositioning+0x11c>
    c6c8:	e59f20bc 	ldr	r2, [pc, #188]	; c78c <RemoteFocusd_FocusMotorPositioning+0x13c>
    c6cc:	e2883001 	add	r3, r8, #1	; 0x1
    c6d0:	e7920103 	ldr	r0, [r2, r3, lsl #2]
    c6d4:	e7926108 	ldr	r6, [r2, r8, lsl #2]
    c6d8:	e0600006 	rsb	r0, r0, r6
    c6dc:	e3500000 	cmp	r0, #0	; 0x0
    c6e0:	b2600000 	rsblt	r0, r0, #0	; 0x0
    c6e4:	eb00042a 	bl	d794 <__aeabi_ui2d>
    c6e8:	e3a02000 	mov	r2, #0	; 0x0
    c6ec:	e59f309c 	ldr	r3, [pc, #156]	; c790 <RemoteFocusd_FocusMotorPositioning+0x140>
    c6f0:	eb000502 	bl	db00 <__aeabi_ddiv>
    c6f4:	e1a04000 	mov	r4, r0
    c6f8:	e1a00288 	lsl	r0, r8, #5
    c6fc:	e0400188 	sub	r0, r0, r8, lsl #3
    c700:	e0680000 	rsb	r0, r8, r0
    c704:	e04a0080 	sub	r0, sl, r0, lsl #1
    c708:	e1a05001 	mov	r5, r1
    c70c:	eb000420 	bl	d794 <__aeabi_ui2d>
    c710:	e1a02000 	mov	r2, r0
    c714:	e1a03001 	mov	r3, r1
    c718:	e1a00004 	mov	r0, r4
    c71c:	e1a01005 	mov	r1, r5
    c720:	eb00045b 	bl	d894 <__aeabi_dmul>
    c724:	eb000576 	bl	dd04 <__aeabi_d2uiz>
    c728:	e0800006 	add	r0, r0, r6
    c72c:	e58700c4 	str	r0, [r7, #196]
    c730:	e3a03003 	mov	r3, #3	; 0x3
    c734:	e3a02001 	mov	r2, #1	; 0x1
    c738:	e58730b0 	str	r3, [r7, #176]
    c73c:	e58720a4 	str	r2, [r7, #164]
    c740:	e28710a4 	add	r1, r7, #164	; 0xa4
    c744:	e0822003 	add	r2, r2, r3
    c748:	e5970120 	ldr	r0, [r7, #288]
    c74c:	e283303d 	add	r3, r3, #61	; 0x3d
    c750:	ebfff2a1 	bl	91dc <_init+0x274>
    c754:	e3500000 	cmp	r0, #0	; 0x0
    c758:	aaffffc3 	bge	c66c <RemoteFocusd_FocusMotorPositioning+0x1c>
    c75c:	e59f0030 	ldr	r0, [pc, #48]	; c794 <RemoteFocusd_FocusMotorPositioning+0x144>
    c760:	e28dd004 	add	sp, sp, #4	; 0x4
    c764:	e8bd45f0 	pop	{r4, r5, r6, r7, r8, sl, lr}
    c768:	eafff2a1 	b	91f4 <_init+0x28c>
    c76c:	e59f3018 	ldr	r3, [pc, #24]	; c78c <RemoteFocusd_FocusMotorPositioning+0x13c>
    c770:	e5932038 	ldr	r2, [r3, #56]
    c774:	e58720c4 	str	r2, [r7, #196]
    c778:	eaffffec 	b	c730 <RemoteFocusd_FocusMotorPositioning+0xe0>
    c77c:	00004d01 	.word	0x00004d01
    c780:	00000d5a 	.word	0x00000d5a
    c784:	40044d06 	.word	0x40044d06
    c788:	b21642c9 	.word	0xb21642c9
    c78c:	0000f044 	.word	0x0000f044
    c790:	40470000 	.word	0x40470000
    c794:	0000e734 	.word	0x0000e734

0000c798 <RemoteFocusd_MoveZoomMotor>:
    c798:	e5903130 	ldr	r3, [r0, #304]
    c79c:	e92d47f0 	push	{r4, r5, r6, r7, r8, r9, sl, lr}
    c7a0:	e3530000 	cmp	r3, #0	; 0x0
    c7a4:	e1a07000 	mov	r7, r0
    c7a8:	e1a0a001 	mov	sl, r1
    c7ac:	03e00000 	mvneq	r0, #0	; 0x0
    c7b0:	08bd87f0 	popeq	{r4, r5, r6, r7, r8, r9, sl, pc}
    c7b4:	e3520801 	cmp	r2, #65536	; 0x10000
    c7b8:	23a09000 	movcs	r9, #0	; 0x0
    c7bc:	3a000064 	bcc	c954 <RemoteFocusd_MoveZoomMotor+0x1bc>
    c7c0:	e5970134 	ldr	r0, [r7, #308]
    c7c4:	e3500000 	cmp	r0, #0	; 0x0
    c7c8:	1a000026 	bne	c868 <RemoteFocusd_MoveZoomMotor+0xd0>
    c7cc:	e59730e0 	ldr	r3, [r7, #224]
    c7d0:	e1590003 	cmp	r9, r3
    c7d4:	3a00000a 	bcc	c804 <RemoteFocusd_MoveZoomMotor+0x6c>
    c7d8:	e3a01c4d 	mov	r1, #19712	; 0x4d00
    c7dc:	e1a0000a 	mov	r0, sl
    c7e0:	ebfff24a 	bl	9110 <_init+0x1a8>
    c7e4:	e59720e0 	ldr	r2, [r7, #224]
    c7e8:	e1a0000a 	mov	r0, sl
    c7ec:	e58790e0 	str	r9, [r7, #224]
    c7f0:	e0622009 	rsb	r2, r2, r9
    c7f4:	e59f1188 	ldr	r1, [pc, #392]	; c984 <RemoteFocusd_MoveZoomMotor+0x1ec>
    c7f8:	ebfff244 	bl	9110 <_init+0x1a8>
    c7fc:	e3a00000 	mov	r0, #0	; 0x0
    c800:	e8bd87f0 	pop	{r4, r5, r6, r7, r8, r9, sl, pc}
    c804:	e59f117c 	ldr	r1, [pc, #380]	; c988 <RemoteFocusd_MoveZoomMotor+0x1f0>
    c808:	e1a0000a 	mov	r0, sl
    c80c:	ebfff23f 	bl	9110 <_init+0x1a8>
    c810:	e59720e0 	ldr	r2, [r7, #224]
    c814:	e1a0000a 	mov	r0, sl
    c818:	e58790e0 	str	r9, [r7, #224]
    c81c:	e0692002 	rsb	r2, r9, r2
    c820:	e59f115c 	ldr	r1, [pc, #348]	; c984 <RemoteFocusd_MoveZoomMotor+0x1ec>
    c824:	ebfff239 	bl	9110 <_init+0x1a8>
    c828:	e3590035 	cmp	r9, #53	; 0x35
    c82c:	93a00000 	movls	r0, #0	; 0x0
    c830:	98bd87f0 	popls	{r4, r5, r6, r7, r8, r9, sl, pc}
    c834:	e3a02036 	mov	r2, #54	; 0x36
    c838:	e59f1144 	ldr	r1, [pc, #324]	; c984 <RemoteFocusd_MoveZoomMotor+0x1ec>
    c83c:	e1a0000a 	mov	r0, sl
    c840:	ebfff232 	bl	9110 <_init+0x1a8>
    c844:	e1a0000a 	mov	r0, sl
    c848:	e3a01c4d 	mov	r1, #19712	; 0x4d00
    c84c:	ebfff22f 	bl	9110 <_init+0x1a8>
    c850:	e1a0000a 	mov	r0, sl
    c854:	e59f1128 	ldr	r1, [pc, #296]	; c984 <RemoteFocusd_MoveZoomMotor+0x1ec>
    c858:	e3a02036 	mov	r2, #54	; 0x36
    c85c:	ebfff22b 	bl	9110 <_init+0x1a8>
    c860:	e3a00000 	mov	r0, #0	; 0x0
    c864:	e8bd87f0 	pop	{r4, r5, r6, r7, r8, r9, sl, pc}
    c868:	e3590000 	cmp	r9, #0	; 0x0
    c86c:	159f2118 	ldrne	r2, [pc, #280]	; c98c <RemoteFocusd_MoveZoomMotor+0x1f4>
    c870:	11a03109 	lslne	r3, r9, #2
    c874:	059f3110 	ldreq	r3, [pc, #272]	; c98c <RemoteFocusd_MoveZoomMotor+0x1f4>
    c878:	10833002 	addne	r3, r3, r2
    c87c:	05932000 	ldreq	r2, [r3]
    c880:	15131004 	ldrne	r1, [r3, #-4]
    c884:	058720ac 	streq	r2, [r7, #172]
    c888:	158710ac 	strne	r1, [r7, #172]
    c88c:	e3500000 	cmp	r0, #0	; 0x0
    c890:	0a00001e 	beq	c910 <RemoteFocusd_MoveZoomMotor+0x178>
    c894:	e59f30f4 	ldr	r3, [pc, #244]	; c990 <RemoteFocusd_MoveZoomMotor+0x1f8>
    c898:	e0821993 	umull	r1, r2, r3, r9
    c89c:	e1a082a2 	lsr	r8, r2, #5
    c8a0:	e358000d 	cmp	r8, #13	; 0xd
    c8a4:	8a000032 	bhi	c974 <RemoteFocusd_MoveZoomMotor+0x1dc>
    c8a8:	e59f20e4 	ldr	r2, [pc, #228]	; c994 <RemoteFocusd_MoveZoomMotor+0x1fc>
    c8ac:	e2883001 	add	r3, r8, #1	; 0x1
    c8b0:	e7920103 	ldr	r0, [r2, r3, lsl #2]
    c8b4:	e7926108 	ldr	r6, [r2, r8, lsl #2]
    c8b8:	e0600006 	rsb	r0, r0, r6
    c8bc:	e3500000 	cmp	r0, #0	; 0x0
    c8c0:	b2600000 	rsblt	r0, r0, #0	; 0x0
    c8c4:	eb0003b2 	bl	d794 <__aeabi_ui2d>
    c8c8:	e3a02000 	mov	r2, #0	; 0x0
    c8cc:	e59f30c4 	ldr	r3, [pc, #196]	; c998 <RemoteFocusd_MoveZoomMotor+0x200>
    c8d0:	eb00048a 	bl	db00 <__aeabi_ddiv>
    c8d4:	e1a04000 	mov	r4, r0
    c8d8:	e1a00288 	lsl	r0, r8, #5
    c8dc:	e0400188 	sub	r0, r0, r8, lsl #3
    c8e0:	e0680000 	rsb	r0, r8, r0
    c8e4:	e0490080 	sub	r0, r9, r0, lsl #1
    c8e8:	e1a05001 	mov	r5, r1
    c8ec:	eb0003a8 	bl	d794 <__aeabi_ui2d>
    c8f0:	e1a02000 	mov	r2, r0
    c8f4:	e1a03001 	mov	r3, r1
    c8f8:	e1a00004 	mov	r0, r4
    c8fc:	e1a01005 	mov	r1, r5
    c900:	eb0003e3 	bl	d894 <__aeabi_dmul>
    c904:	eb0004fe 	bl	dd04 <__aeabi_d2uiz>
    c908:	e0800006 	add	r0, r0, r6
    c90c:	e58700c4 	str	r0, [r7, #196]
    c910:	e59730ac 	ldr	r3, [r7, #172]
    c914:	e3a02002 	mov	r2, #2	; 0x2
    c918:	e58730bc 	str	r3, [r7, #188]
    c91c:	e3a03001 	mov	r3, #1	; 0x1
    c920:	e58720b0 	str	r2, [r7, #176]
    c924:	e58730a4 	str	r3, [r7, #164]
    c928:	e58720b4 	str	r2, [r7, #180]
    c92c:	e5970120 	ldr	r0, [r7, #288]
    c930:	e28710a4 	add	r1, r7, #164	; 0xa4
    c934:	e0822002 	add	r2, r2, r2
    c938:	e283303f 	add	r3, r3, #63	; 0x3f
    c93c:	ebfff226 	bl	91dc <_init+0x274>
    c940:	e3500000 	cmp	r0, #0	; 0x0
    c944:	aaffffa0 	bge	c7cc <RemoteFocusd_MoveZoomMotor+0x34>
    c948:	e59f004c 	ldr	r0, [pc, #76]	; c99c <RemoteFocusd_MoveZoomMotor+0x204>
    c94c:	ebfff228 	bl	91f4 <_init+0x28c>
    c950:	eaffff9d 	b	c7cc <RemoteFocusd_MoveZoomMotor+0x34>
    c954:	e59f3044 	ldr	r3, [pc, #68]	; c9a0 <RemoteFocusd_MoveZoomMotor+0x208>
    c958:	e5970134 	ldr	r0, [r7, #308]
    c95c:	e1520003 	cmp	r2, r3
    c960:	31a09002 	movcc	r9, r2
    c964:	21a09003 	movcs	r9, r3
    c968:	e3500000 	cmp	r0, #0	; 0x0
    c96c:	0affff96 	beq	c7cc <RemoteFocusd_MoveZoomMotor+0x34>
    c970:	eaffffbc 	b	c868 <RemoteFocusd_MoveZoomMotor+0xd0>
    c974:	e59f3018 	ldr	r3, [pc, #24]	; c994 <RemoteFocusd_MoveZoomMotor+0x1fc>
    c978:	e5932038 	ldr	r2, [r3, #56]
    c97c:	e58720c4 	str	r2, [r7, #196]
    c980:	eaffffe2 	b	c910 <RemoteFocusd_MoveZoomMotor+0x178>
    c984:	40044d06 	.word	0x40044d06
    c988:	00004d01 	.word	0x00004d01
    c98c:	0001763c 	.word	0x0001763c
    c990:	b21642c9 	.word	0xb21642c9
    c994:	0000f044 	.word	0x0000f044
    c998:	40470000 	.word	0x40470000
    c99c:	0000e734 	.word	0x0000e734
    c9a0:	00000514 	.word	0x00000514

0000c9a4 <RemoteFocusd_OperateZoomMotor>:
    c9a4:	e5903130 	ldr	r3, [r0, #304]
    c9a8:	e92d4010 	push	{r4, lr}
    c9ac:	e3530000 	cmp	r3, #0	; 0x0
    c9b0:	e1a04000 	mov	r4, r0
    c9b4:	08bd8010 	popeq	{r4, pc}
    c9b8:	e590c0e8 	ldr	ip, [r0, #232]
    c9bc:	e35c0002 	cmp	ip, #2	; 0x2
    c9c0:	0a000026 	beq	ca60 <RemoteFocusd_OperateZoomMotor+0xbc>
    c9c4:	e59030ec 	ldr	r3, [r0, #236]
    c9c8:	e353001e 	cmp	r3, #30	; 0x1e
    c9cc:	23a0301e 	movcs	r3, #30	; 0x1e
    c9d0:	e35c0000 	cmp	ip, #0	; 0x0
    c9d4:	e58030ec 	str	r3, [r0, #236]
    c9d8:	0a00001a 	beq	ca48 <RemoteFocusd_OperateZoomMotor+0xa4>
    c9dc:	e35c0001 	cmp	ip, #1	; 0x1
    c9e0:	0a000023 	beq	ca74 <RemoteFocusd_OperateZoomMotor+0xd0>
    c9e4:	e59420dc 	ldr	r2, [r4, #220]
    c9e8:	e3520000 	cmp	r2, #0	; 0x0
    c9ec:	0a000012 	beq	ca3c <RemoteFocusd_OperateZoomMotor+0x98>
    c9f0:	e5943134 	ldr	r3, [r4, #308]
    c9f4:	e3530000 	cmp	r3, #0	; 0x0
    c9f8:	0a00000d 	beq	ca34 <RemoteFocusd_OperateZoomMotor+0x90>
    c9fc:	e3520003 	cmp	r2, #3	; 0x3
    ca00:	059f00ac 	ldreq	r0, [pc, #172]	; cab4 <RemoteFocusd_OperateZoomMotor+0x110>
    ca04:	0a000024 	beq	ca9c <RemoteFocusd_OperateZoomMotor+0xf8>
    ca08:	e3520004 	cmp	r2, #4	; 0x4
    ca0c:	0a000021 	beq	ca98 <RemoteFocusd_OperateZoomMotor+0xf4>
    ca10:	e3a03001 	mov	r3, #1	; 0x1
    ca14:	e58430a4 	str	r3, [r4, #164]
    ca18:	e5940120 	ldr	r0, [r4, #288]
    ca1c:	e28410a4 	add	r1, r4, #164	; 0xa4
    ca20:	e3a02004 	mov	r2, #4	; 0x4
    ca24:	e283303f 	add	r3, r3, #63	; 0x3f
    ca28:	ebfff1eb 	bl	91dc <_init+0x274>
    ca2c:	e3500000 	cmp	r0, #0	; 0x0
    ca30:	ba000015 	blt	ca8c <RemoteFocusd_OperateZoomMotor+0xe8>
    ca34:	e3a03000 	mov	r3, #0	; 0x0
    ca38:	e58430dc 	str	r3, [r4, #220]
    ca3c:	e3a03000 	mov	r3, #0	; 0x0
    ca40:	e58430e4 	str	r3, [r4, #228]
    ca44:	e8bd8010 	pop	{r4, pc}
    ca48:	e59020e0 	ldr	r2, [r0, #224]
    ca4c:	e0832002 	add	r2, r3, r2
    ca50:	ebffff50 	bl	c798 <RemoteFocusd_MoveZoomMotor>
    ca54:	e3500000 	cmp	r0, #0	; 0x0
    ca58:	0affffe1 	beq	c9e4 <RemoteFocusd_OperateZoomMotor+0x40>
    ca5c:	e8bd8010 	pop	{r4, pc}
    ca60:	e59020f0 	ldr	r2, [r0, #240]
    ca64:	ebffff4b 	bl	c798 <RemoteFocusd_MoveZoomMotor>
    ca68:	e3500000 	cmp	r0, #0	; 0x0
    ca6c:	0affffdc 	beq	c9e4 <RemoteFocusd_OperateZoomMotor+0x40>
    ca70:	e8bd8010 	pop	{r4, pc}
    ca74:	e59020e0 	ldr	r2, [r0, #224]
    ca78:	e0632002 	rsb	r2, r3, r2
    ca7c:	ebffff45 	bl	c798 <RemoteFocusd_MoveZoomMotor>
    ca80:	e3500000 	cmp	r0, #0	; 0x0
    ca84:	0affffd6 	beq	c9e4 <RemoteFocusd_OperateZoomMotor+0x40>
    ca88:	e8bd8010 	pop	{r4, pc}
    ca8c:	e59f0024 	ldr	r0, [pc, #36]	; cab8 <RemoteFocusd_OperateZoomMotor+0x114>
    ca90:	ebfff1d7 	bl	91f4 <_init+0x28c>
    ca94:	eaffffe6 	b	ca34 <RemoteFocusd_OperateZoomMotor+0x90>
    ca98:	e59f001c 	ldr	r0, [pc, #28]	; cabc <RemoteFocusd_OperateZoomMotor+0x118>
    ca9c:	ebfff1d4 	bl	91f4 <_init+0x28c>
    caa0:	e59420dc 	ldr	r2, [r4, #220]
    caa4:	e3a03001 	mov	r3, #1	; 0x1
    caa8:	e58430cc 	str	r3, [r4, #204]
    caac:	e58420b0 	str	r2, [r4, #176]
    cab0:	eaffffd6 	b	ca10 <RemoteFocusd_OperateZoomMotor+0x6c>
    cab4:	0000f080 	.word	0x0000f080
    cab8:	0000e590 	.word	0x0000e590
    cabc:	0000f0a8 	.word	0x0000f0a8

0000cac0 <RemoteFocusd_ZoomMissionDispatcher>:
    cac0:	e92d4030 	push	{r4, r5, lr}
    cac4:	e5903130 	ldr	r3, [r0, #304]
    cac8:	e24dd00c 	sub	sp, sp, #12	; 0xc
    cacc:	e3530000 	cmp	r3, #0	; 0x0
    cad0:	e1a04000 	mov	r4, r0
    cad4:	e1a05001 	mov	r5, r1
    cad8:	0a000008 	beq	cb00 <RemoteFocusd_ZoomMissionDispatcher+0x40>
    cadc:	e59030e4 	ldr	r3, [r0, #228]
    cae0:	e3530005 	cmp	r3, #5	; 0x5
    cae4:	0a000007 	beq	cb08 <RemoteFocusd_ZoomMissionDispatcher+0x48>
    cae8:	e3530008 	cmp	r3, #8	; 0x8
    caec:	03a03000 	moveq	r3, #0	; 0x0
    caf0:	058030e4 	streq	r3, [r0, #228]
    caf4:	0a000001 	beq	cb00 <RemoteFocusd_ZoomMissionDispatcher+0x40>
    caf8:	e3530001 	cmp	r3, #1	; 0x1
    cafc:	0a000016 	beq	cb5c <RemoteFocusd_ZoomMissionDispatcher+0x9c>
    cb00:	e28dd00c 	add	sp, sp, #12	; 0xc
    cb04:	e8bd8030 	pop	{r4, r5, pc}
    cb08:	e59f01c4 	ldr	r0, [pc, #452]	; ccd4 <RemoteFocusd_ZoomMissionDispatcher+0x214>
    cb0c:	e59f11c4 	ldr	r1, [pc, #452]	; ccd8 <RemoteFocusd_ZoomMissionDispatcher+0x218>
    cb10:	e3a02f69 	mov	r2, #420	; 0x1a4
    cb14:	ebfff11d 	bl	8f90 <_init+0x28>
    cb18:	e3500000 	cmp	r0, #0	; 0x0
    cb1c:	ba000069 	blt	ccc8 <RemoteFocusd_ZoomMissionDispatcher+0x208>
    cb20:	ebfff1a1 	bl	91ac <_init+0x244>
    cb24:	ebfff11c 	bl	8f9c <_init+0x34>
    cb28:	e5943130 	ldr	r3, [r4, #304]
    cb2c:	e3530000 	cmp	r3, #0	; 0x0
    cb30:	1a000045 	bne	cc4c <RemoteFocusd_ZoomMissionDispatcher+0x18c>
    cb34:	e1a00004 	mov	r0, r4
    cb38:	ebfffcd8 	bl	bea0 <RemoteFocusd_SaveConfigFile>
    cb3c:	e3500000 	cmp	r0, #0	; 0x0
    cb40:	1a00003e 	bne	cc40 <RemoteFocusd_ZoomMissionDispatcher+0x180>
    cb44:	e59f0188 	ldr	r0, [pc, #392]	; ccd4 <RemoteFocusd_ZoomMissionDispatcher+0x214>
    cb48:	ebfff19a 	bl	91b8 <_init+0x250>
    cb4c:	e3500000 	cmp	r0, #0	; 0x0
    cb50:	ba000059 	blt	ccbc <RemoteFocusd_ZoomMissionDispatcher+0x1fc>
    cb54:	ebfff110 	bl	8f9c <_init+0x34>
    cb58:	eaffffe8 	b	cb00 <RemoteFocusd_ZoomMissionDispatcher+0x40>
    cb5c:	e59f0170 	ldr	r0, [pc, #368]	; ccd4 <RemoteFocusd_ZoomMissionDispatcher+0x214>
    cb60:	e59f1170 	ldr	r1, [pc, #368]	; ccd8 <RemoteFocusd_ZoomMissionDispatcher+0x218>
    cb64:	e3a02f69 	mov	r2, #420	; 0x1a4
    cb68:	ebfff108 	bl	8f90 <_init+0x28>
    cb6c:	e3500000 	cmp	r0, #0	; 0x0
    cb70:	ba00004e 	blt	ccb0 <RemoteFocusd_ZoomMissionDispatcher+0x1f0>
    cb74:	ebfff18c 	bl	91ac <_init+0x244>
    cb78:	ebfff107 	bl	8f9c <_init+0x34>
    cb7c:	e1a01005 	mov	r1, r5
    cb80:	e1a00004 	mov	r0, r4
    cb84:	ebffff86 	bl	c9a4 <RemoteFocusd_OperateZoomMotor>
    cb88:	e1a00004 	mov	r0, r4
    cb8c:	ebfffcc3 	bl	bea0 <RemoteFocusd_SaveConfigFile>
    cb90:	e3500000 	cmp	r0, #0	; 0x0
    cb94:	1a00003f 	bne	cc98 <RemoteFocusd_ZoomMissionDispatcher+0x1d8>
    cb98:	e59f0134 	ldr	r0, [pc, #308]	; ccd4 <RemoteFocusd_ZoomMissionDispatcher+0x214>
    cb9c:	ebfff185 	bl	91b8 <_init+0x250>
    cba0:	e3500000 	cmp	r0, #0	; 0x0
    cba4:	ba00003e 	blt	cca4 <RemoteFocusd_ZoomMissionDispatcher+0x1e4>
    cba8:	ebfff0fb 	bl	8f9c <_init+0x34>
    cbac:	e5943104 	ldr	r3, [r4, #260]
    cbb0:	e3530000 	cmp	r3, #0	; 0x0
    cbb4:	0affffd1 	beq	cb00 <RemoteFocusd_ZoomMissionDispatcher+0x40>
    cbb8:	e3a01000 	mov	r1, #0	; 0x0
    cbbc:	e1a0000d 	mov	r0, sp
    cbc0:	ebfff14f 	bl	9104 <_init+0x19c>
    cbc4:	e59dc004 	ldr	ip, [sp, #4]
    cbc8:	e59f210c 	ldr	r2, [pc, #268]	; ccdc <RemoteFocusd_ZoomMissionDispatcher+0x21c>
    cbcc:	e59d1000 	ldr	r1, [sp]
    cbd0:	e0c03c92 	smull	r3, r0, r2, ip
    cbd4:	e1a03381 	lsl	r3, r1, #7
    cbd8:	e0433101 	sub	r3, r3, r1, lsl #2
    cbdc:	e0833001 	add	r3, r3, r1
    cbe0:	e1a0cfcc 	asr	ip, ip, #31
    cbe4:	e06cc340 	rsb	ip, ip, r0, asr #6
    cbe8:	e5942098 	ldr	r2, [r4, #152]
    cbec:	e1a03183 	lsl	r3, r3, #3
    cbf0:	e083300c 	add	r3, r3, ip
    cbf4:	e0623003 	rsb	r3, r2, r3
    cbf8:	e3530ffa 	cmp	r3, #1000	; 0x3e8
    cbfc:	83a03082 	movhi	r3, #130	; 0x82
    cc00:	93a03001 	movls	r3, #1	; 0x1
    cc04:	858430ec 	strhi	r3, [r4, #236]
    cc08:	958430ec 	strls	r3, [r4, #236]
    cc0c:	e3a03001 	mov	r3, #1	; 0x1
    cc10:	e58430d8 	str	r3, [r4, #216]
    cc14:	e58430e4 	str	r3, [r4, #228]
    cc18:	e28410d8 	add	r1, r4, #216	; 0xd8
    cc1c:	e5940128 	ldr	r0, [r4, #296]
    cc20:	e3a02004 	mov	r2, #4	; 0x4
    cc24:	e283303f 	add	r3, r3, #63	; 0x3f
    cc28:	ebfff16b 	bl	91dc <_init+0x274>
    cc2c:	e3500000 	cmp	r0, #0	; 0x0
    cc30:	aaffffb2 	bge	cb00 <RemoteFocusd_ZoomMissionDispatcher+0x40>
    cc34:	e59f00a4 	ldr	r0, [pc, #164]	; cce0 <RemoteFocusd_ZoomMissionDispatcher+0x220>
    cc38:	ebfff16d 	bl	91f4 <_init+0x28c>
    cc3c:	eaffffaf 	b	cb00 <RemoteFocusd_ZoomMissionDispatcher+0x40>
    cc40:	e59f009c 	ldr	r0, [pc, #156]	; cce4 <RemoteFocusd_ZoomMissionDispatcher+0x224>
    cc44:	ebfff16a 	bl	91f4 <_init+0x28c>
    cc48:	eaffffbd 	b	cb44 <RemoteFocusd_ZoomMissionDispatcher+0x84>
    cc4c:	e59f1094 	ldr	r1, [pc, #148]	; cce8 <RemoteFocusd_ZoomMissionDispatcher+0x228>
    cc50:	e1a00005 	mov	r0, r5
    cc54:	ebfff12d 	bl	9110 <_init+0x1a8>
    cc58:	e59f208c 	ldr	r2, [pc, #140]	; ccec <RemoteFocusd_ZoomMissionDispatcher+0x22c>
    cc5c:	e59f108c 	ldr	r1, [pc, #140]	; ccf0 <RemoteFocusd_ZoomMissionDispatcher+0x230>
    cc60:	e1a00005 	mov	r0, r5
    cc64:	ebfff129 	bl	9110 <_init+0x1a8>
    cc68:	e3a01c4d 	mov	r1, #19712	; 0x4d00
    cc6c:	e1a00005 	mov	r0, r5
    cc70:	ebfff126 	bl	9110 <_init+0x1a8>
    cc74:	e59420f0 	ldr	r2, [r4, #240]
    cc78:	e1a00005 	mov	r0, r5
    cc7c:	e59f106c 	ldr	r1, [pc, #108]	; ccf0 <RemoteFocusd_ZoomMissionDispatcher+0x230>
    cc80:	ebfff122 	bl	9110 <_init+0x1a8>
    cc84:	e59430f0 	ldr	r3, [r4, #240]
    cc88:	e3a02000 	mov	r2, #0	; 0x0
    cc8c:	e58430e0 	str	r3, [r4, #224]
    cc90:	e58420e4 	str	r2, [r4, #228]
    cc94:	eaffffa6 	b	cb34 <RemoteFocusd_ZoomMissionDispatcher+0x74>
    cc98:	e59f0044 	ldr	r0, [pc, #68]	; cce4 <RemoteFocusd_ZoomMissionDispatcher+0x224>
    cc9c:	ebfff154 	bl	91f4 <_init+0x28c>
    cca0:	eaffffbc 	b	cb98 <RemoteFocusd_ZoomMissionDispatcher+0xd8>
    cca4:	e59f0048 	ldr	r0, [pc, #72]	; ccf4 <RemoteFocusd_ZoomMissionDispatcher+0x234>
    cca8:	ebfff151 	bl	91f4 <_init+0x28c>
    ccac:	eaffffbe 	b	cbac <RemoteFocusd_ZoomMissionDispatcher+0xec>
    ccb0:	e59f0040 	ldr	r0, [pc, #64]	; ccf8 <RemoteFocusd_ZoomMissionDispatcher+0x238>
    ccb4:	ebfff14e 	bl	91f4 <_init+0x28c>
    ccb8:	eaffffaf 	b	cb7c <RemoteFocusd_ZoomMissionDispatcher+0xbc>
    ccbc:	e59f0030 	ldr	r0, [pc, #48]	; ccf4 <RemoteFocusd_ZoomMissionDispatcher+0x234>
    ccc0:	ebfff14b 	bl	91f4 <_init+0x28c>
    ccc4:	eaffff8d 	b	cb00 <RemoteFocusd_ZoomMissionDispatcher+0x40>
    ccc8:	e59f0028 	ldr	r0, [pc, #40]	; ccf8 <RemoteFocusd_ZoomMissionDispatcher+0x238>
    cccc:	ebfff148 	bl	91f4 <_init+0x28c>
    ccd0:	eaffff94 	b	cb28 <RemoteFocusd_ZoomMissionDispatcher+0x68>
    ccd4:	0000ed3c 	.word	0x0000ed3c
    ccd8:	00000241 	.word	0x00000241
    ccdc:	10624dd3 	.word	0x10624dd3
    cce0:	0000e614 	.word	0x0000e614
    cce4:	0000f35c 	.word	0x0000f35c
    cce8:	00004d01 	.word	0x00004d01
    ccec:	00000578 	.word	0x00000578
    ccf0:	40044d06 	.word	0x40044d06
    ccf4:	0000f1e4 	.word	0x0000f1e4
    ccf8:	0000f21c 	.word	0x0000f21c

0000ccfc <RemoteFocusd_ZoomMotorThread>:
    ccfc:	e92d4ff0 	push	{r4, r5, r6, r7, r8, r9, sl, fp, lr}
    cd00:	e1a07000 	mov	r7, r0
    cd04:	e5900130 	ldr	r0, [r0, #304]
    cd08:	e24dd09c 	sub	sp, sp, #156	; 0x9c
    cd0c:	e3500000 	cmp	r0, #0	; 0x0
    cd10:	1a000001 	bne	cd1c <RemoteFocusd_ZoomMotorThread+0x20>
    cd14:	e28dd09c 	add	sp, sp, #156	; 0x9c
    cd18:	e8bd8ff0 	pop	{r4, r5, r6, r7, r8, r9, sl, fp, pc}
    cd1c:	e59f6234 	ldr	r6, [pc, #564]	; cf58 <RemoteFocusd_ZoomMotorThread+0x25c>
    cd20:	e3a04000 	mov	r4, #0	; 0x0
    cd24:	e58740f8 	str	r4, [r7, #248]
    cd28:	e58760fc 	str	r6, [r7, #252]
    cd2c:	e59f0228 	ldr	r0, [pc, #552]	; cf5c <RemoteFocusd_ZoomMotorThread+0x260>
    cd30:	e3a01001 	mov	r1, #1	; 0x1
    cd34:	ebfff095 	bl	8f90 <_init+0x28>
    cd38:	e250a000 	subs	sl, r0, #0	; 0x0
    cd3c:	aa000005 	bge	cd58 <RemoteFocusd_ZoomMotorThread+0x5c>
    cd40:	e59f0218 	ldr	r0, [pc, #536]	; cf60 <RemoteFocusd_ZoomMotorThread+0x264>
    cd44:	ebfff12a 	bl	91f4 <_init+0x28c>
    cd48:	e59f3214 	ldr	r3, [pc, #532]	; cf64 <RemoteFocusd_ZoomMotorThread+0x268>
    cd4c:	e3e00000 	mvn	r0, #0	; 0x0
    cd50:	e5834000 	str	r4, [r3]
    cd54:	eaffffee 	b	cd14 <RemoteFocusd_ZoomMotorThread+0x18>
    cd58:	e59f1208 	ldr	r1, [pc, #520]	; cf68 <RemoteFocusd_ZoomMotorThread+0x26c>
    cd5c:	ebfff0eb 	bl	9110 <_init+0x1a8>
    cd60:	e5970134 	ldr	r0, [r7, #308]
    cd64:	e59790e0 	ldr	r9, [r7, #224]
    cd68:	e3500000 	cmp	r0, #0	; 0x0
    cd6c:	0a000027 	beq	ce10 <RemoteFocusd_ZoomMotorThread+0x114>
    cd70:	e3590000 	cmp	r9, #0	; 0x0
    cd74:	1a000067 	bne	cf18 <RemoteFocusd_ZoomMotorThread+0x21c>
    cd78:	e59f31ec 	ldr	r3, [pc, #492]	; cf6c <RemoteFocusd_ZoomMotorThread+0x270>
    cd7c:	e5932000 	ldr	r2, [r3]
    cd80:	e58720ac 	str	r2, [r7, #172]
    cd84:	e3500000 	cmp	r0, #0	; 0x0
    cd88:	0a000020 	beq	ce10 <RemoteFocusd_ZoomMotorThread+0x114>
    cd8c:	e59f31dc 	ldr	r3, [pc, #476]	; cf70 <RemoteFocusd_ZoomMotorThread+0x274>
    cd90:	e0821993 	umull	r1, r2, r3, r9
    cd94:	e1a082a2 	lsr	r8, r2, #5
    cd98:	e358000d 	cmp	r8, #13	; 0xd
    cd9c:	8a000068 	bhi	cf44 <RemoteFocusd_ZoomMotorThread+0x248>
    cda0:	e59f21cc 	ldr	r2, [pc, #460]	; cf74 <RemoteFocusd_ZoomMotorThread+0x278>
    cda4:	e2883001 	add	r3, r8, #1	; 0x1
    cda8:	e7920103 	ldr	r0, [r2, r3, lsl #2]
    cdac:	e7926108 	ldr	r6, [r2, r8, lsl #2]
    cdb0:	e59fb1ac 	ldr	fp, [pc, #428]	; cf64 <RemoteFocusd_ZoomMotorThread+0x268>
    cdb4:	e0600006 	rsb	r0, r0, r6
    cdb8:	e3500000 	cmp	r0, #0	; 0x0
    cdbc:	b2600000 	rsblt	r0, r0, #0	; 0x0
    cdc0:	eb000273 	bl	d794 <__aeabi_ui2d>
    cdc4:	e3a02000 	mov	r2, #0	; 0x0
    cdc8:	e59f31a8 	ldr	r3, [pc, #424]	; cf78 <RemoteFocusd_ZoomMotorThread+0x27c>
    cdcc:	eb00034b 	bl	db00 <__aeabi_ddiv>
    cdd0:	e1a04000 	mov	r4, r0
    cdd4:	e1a00288 	lsl	r0, r8, #5
    cdd8:	e0400188 	sub	r0, r0, r8, lsl #3
    cddc:	e0680000 	rsb	r0, r8, r0
    cde0:	e0490080 	sub	r0, r9, r0, lsl #1
    cde4:	e1a05001 	mov	r5, r1
    cde8:	eb000269 	bl	d794 <__aeabi_ui2d>
    cdec:	e1a02000 	mov	r2, r0
    cdf0:	e1a03001 	mov	r3, r1
    cdf4:	e1a00004 	mov	r0, r4
    cdf8:	e1a01005 	mov	r1, r5
    cdfc:	eb0002a4 	bl	d894 <__aeabi_dmul>
    ce00:	eb0003bf 	bl	dd04 <__aeabi_d2uiz>
    ce04:	e0800006 	add	r0, r0, r6
    ce08:	e58700c4 	str	r0, [r7, #196]
    ce0c:	ea000000 	b	ce14 <RemoteFocusd_ZoomMotorThread+0x118>
    ce10:	e59fb14c 	ldr	fp, [pc, #332]	; cf64 <RemoteFocusd_ZoomMotorThread+0x268>
    ce14:	e59b4000 	ldr	r4, [fp]
    ce18:	e3540000 	cmp	r4, #0	; 0x0
    ce1c:	0a000030 	beq	cee4 <RemoteFocusd_ZoomMotorThread+0x1e8>
    ce20:	e3a03000 	mov	r3, #0	; 0x0
    ce24:	e58d300c 	str	r3, [sp, #12]
    ce28:	e28d100c 	add	r1, sp, #12	; 0xc
    ce2c:	e2833004 	add	r3, r3, #4	; 0x4
    ce30:	e3a06000 	mov	r6, #0	; 0x0
    ce34:	e7836001 	str	r6, [r3, r1]
    ce38:	e2833004 	add	r3, r3, #4	; 0x4
    ce3c:	e3530080 	cmp	r3, #128	; 0x80
    ce40:	1afffffa 	bne	ce30 <RemoteFocusd_ZoomMotorThread+0x134>
    ce44:	e597012c 	ldr	r0, [r7, #300]
    ce48:	e28d3098 	add	r3, sp, #152	; 0x98
    ce4c:	e1a0e2a0 	lsr	lr, r0, #5
    ce50:	e1a0e10e 	lsl	lr, lr, #2
    ce54:	e08ee003 	add	lr, lr, r3
    ce58:	e51e408c 	ldr	r4, [lr, #-140]
    ce5c:	e200201f 	and	r2, r0, #31	; 0x1f
    ce60:	e3a03001 	mov	r3, #1	; 0x1
    ce64:	e1844213 	orr	r4, r4, r3, lsl r2
    ce68:	e0800003 	add	r0, r0, r3
    ce6c:	e50e408c 	str	r4, [lr, #-140]
    ce70:	e3a0c003 	mov	ip, #3	; 0x3
    ce74:	e28de08c 	add	lr, sp, #140	; 0x8c
    ce78:	e1a02006 	mov	r2, r6
    ce7c:	e1a03006 	mov	r3, r6
    ce80:	e58dc08c 	str	ip, [sp, #140]
    ce84:	e58de000 	str	lr, [sp]
    ce88:	e58d6090 	str	r6, [sp, #144]
    ce8c:	ebfff0c3 	bl	91a0 <_init+0x238>
    ce90:	e1500006 	cmp	r0, r6
    ce94:	ba000018 	blt	cefc <RemoteFocusd_ZoomMotorThread+0x200>
    ce98:	0a00000e 	beq	ced8 <RemoteFocusd_ZoomMotorThread+0x1dc>
    ce9c:	e597012c 	ldr	r0, [r7, #300]
    cea0:	e28d1094 	add	r1, sp, #148	; 0x94
    cea4:	e3a02004 	mov	r2, #4	; 0x4
    cea8:	ebfff08c 	bl	90e0 <_init+0x178>
    ceac:	e59730d8 	ldr	r3, [r7, #216]
    ceb0:	e3530000 	cmp	r3, #0	; 0x0
    ceb4:	0affffd6 	beq	ce14 <RemoteFocusd_ZoomMotorThread+0x118>
    ceb8:	e1a0100a 	mov	r1, sl
    cebc:	e1a00007 	mov	r0, r7
    cec0:	e58760d8 	str	r6, [r7, #216]
    cec4:	ebfffefd 	bl	cac0 <RemoteFocusd_ZoomMissionDispatcher>
    cec8:	e1a0000a 	mov	r0, sl
    cecc:	e59f1094 	ldr	r1, [pc, #148]	; cf68 <RemoteFocusd_ZoomMotorThread+0x26c>
    ced0:	ebfff08e 	bl	9110 <_init+0x1a8>
    ced4:	eaffffce 	b	ce14 <RemoteFocusd_ZoomMotorThread+0x118>
    ced8:	e59f009c 	ldr	r0, [pc, #156]	; cf7c <RemoteFocusd_ZoomMotorThread+0x280>
    cedc:	ebfff0c4 	bl	91f4 <_init+0x28c>
    cee0:	eaffffcb 	b	ce14 <RemoteFocusd_ZoomMotorThread+0x118>
    cee4:	e1a0000a 	mov	r0, sl
    cee8:	ebfff0af 	bl	91ac <_init+0x244>
    ceec:	e59f3070 	ldr	r3, [pc, #112]	; cf64 <RemoteFocusd_ZoomMotorThread+0x268>
    cef0:	e1a00004 	mov	r0, r4
    cef4:	e5834000 	str	r4, [r3]
    cef8:	eaffff85 	b	cd14 <RemoteFocusd_ZoomMotorThread+0x18>
    cefc:	ebfff0d4 	bl	9254 <_init+0x2ec>
    cf00:	e5903000 	ldr	r3, [r0]
    cf04:	e3530004 	cmp	r3, #4	; 0x4
    cf08:	0affffc1 	beq	ce14 <RemoteFocusd_ZoomMotorThread+0x118>
    cf0c:	e59f006c 	ldr	r0, [pc, #108]	; cf80 <RemoteFocusd_ZoomMotorThread+0x284>
    cf10:	ebfff0b7 	bl	91f4 <_init+0x28c>
    cf14:	eaffffbe 	b	ce14 <RemoteFocusd_ZoomMotorThread+0x118>
    cf18:	e1590006 	cmp	r9, r6
    cf1c:	959f2048 	ldrls	r2, [pc, #72]	; cf6c <RemoteFocusd_ZoomMotorThread+0x270>
    cf20:	91a03109 	lslls	r3, r9, #2
    cf24:	859f3040 	ldrhi	r3, [pc, #64]	; cf6c <RemoteFocusd_ZoomMotorThread+0x270>
    cf28:	859f2054 	ldrhi	r2, [pc, #84]	; cf84 <RemoteFocusd_ZoomMotorThread+0x288>
    cf2c:	90833002 	addls	r3, r3, r2
    cf30:	87931002 	ldrhi	r1, [r3, r2]
    cf34:	95131004 	ldrls	r1, [r3, #-4]
    cf38:	858710ac 	strhi	r1, [r7, #172]
    cf3c:	958710ac 	strls	r1, [r7, #172]
    cf40:	eaffff8f 	b	cd84 <RemoteFocusd_ZoomMotorThread+0x88>
    cf44:	e59f3028 	ldr	r3, [pc, #40]	; cf74 <RemoteFocusd_ZoomMotorThread+0x278>
    cf48:	e59fb014 	ldr	fp, [pc, #20]	; cf64 <RemoteFocusd_ZoomMotorThread+0x268>
    cf4c:	e5932038 	ldr	r2, [r3, #56]
    cf50:	e58720c4 	str	r2, [r7, #196]
    cf54:	eaffffae 	b	ce14 <RemoteFocusd_ZoomMotorThread+0x118>
    cf58:	00000514 	.word	0x00000514
    cf5c:	0000f394 	.word	0x0000f394
    cf60:	0000f3a4 	.word	0x0000f3a4
    cf64:	0001762c 	.word	0x0001762c
    cf68:	00004d05 	.word	0x00004d05
    cf6c:	0001763c 	.word	0x0001763c
    cf70:	b21642c9 	.word	0xb21642c9
    cf74:	0000f044 	.word	0x0000f044
    cf78:	40470000 	.word	0x40470000
    cf7c:	0000f024 	.word	0x0000f024
    cf80:	0000efd0 	.word	0x0000efd0
    cf84:	0000144c 	.word	0x0000144c

0000cf88 <RemoteFocusd_FocusMissionDispatcher>:
    cf88:	e92d45f0 	push	{r4, r5, r6, r7, r8, sl, lr}
    cf8c:	e5903134 	ldr	r3, [r0, #308]
    cf90:	e24dd004 	sub	sp, sp, #4	; 0x4
    cf94:	e3530000 	cmp	r3, #0	; 0x0
    cf98:	e1a07000 	mov	r7, r0
    cf9c:	e1a04001 	mov	r4, r1
    cfa0:	0a000014 	beq	cff8 <RemoteFocusd_FocusMissionDispatcher+0x70>
    cfa4:	e59030b0 	ldr	r3, [r0, #176]
    cfa8:	e2433002 	sub	r3, r3, #2	; 0x2
    cfac:	e3530009 	cmp	r3, #9	; 0x9
    cfb0:	979ff103 	ldrls	pc, [pc, r3, lsl #2]
    cfb4:	ea00000f 	b	cff8 <RemoteFocusd_FocusMissionDispatcher+0x70>
    cfb8:	0000d040 	.word	0x0000d040
    cfbc:	0000d0a4 	.word	0x0000d0a4
    cfc0:	0000d0fc 	.word	0x0000d0fc
    cfc4:	0000d13c 	.word	0x0000d13c
    cfc8:	0000cff8 	.word	0x0000cff8
    cfcc:	0000cff8 	.word	0x0000cff8
    cfd0:	0000d034 	.word	0x0000d034
    cfd4:	0000cff8 	.word	0x0000cff8
    cfd8:	0000d000 	.word	0x0000d000
    cfdc:	0000cfe0 	.word	0x0000cfe0
    cfe0:	e5901108 	ldr	r1, [r0, #264]
    cfe4:	e3a02000 	mov	r2, #0	; 0x0
    cfe8:	e3a03001 	mov	r3, #1	; 0x1
    cfec:	e581300c 	str	r3, [r1, #12]
    cff0:	e58020b0 	str	r2, [r0, #176]
    cff4:	e5812010 	str	r2, [r1, #16]
    cff8:	e28dd004 	add	sp, sp, #4	; 0x4
    cffc:	e8bd85f0 	pop	{r4, r5, r6, r7, r8, sl, pc}
    d000:	e5904108 	ldr	r4, [r0, #264]
    d004:	e3a03001 	mov	r3, #1	; 0x1
    d008:	e584300c 	str	r3, [r4, #12]
    d00c:	e5843010 	str	r3, [r4, #16]
    d010:	ea000002 	b	d020 <RemoteFocusd_FocusMissionDispatcher+0x98>
    d014:	e594300c 	ldr	r3, [r4, #12]
    d018:	e3530001 	cmp	r3, #1	; 0x1
    d01c:	1a000004 	bne	d034 <RemoteFocusd_FocusMissionDispatcher+0xac>
    d020:	e59f02fc 	ldr	r0, [pc, #764]	; d324 <RemoteFocusd_FocusMissionDispatcher+0x39c>
    d024:	ebfff02a 	bl	90d4 <_init+0x16c>
    d028:	e5943010 	ldr	r3, [r4, #16]
    d02c:	e3530001 	cmp	r3, #1	; 0x1
    d030:	0afffff7 	beq	d014 <RemoteFocusd_FocusMissionDispatcher+0x8c>
    d034:	e3a03000 	mov	r3, #0	; 0x0
    d038:	e58730b0 	str	r3, [r7, #176]
    d03c:	eaffffed 	b	cff8 <RemoteFocusd_FocusMissionDispatcher+0x70>
    d040:	e59f02e0 	ldr	r0, [pc, #736]	; d328 <RemoteFocusd_FocusMissionDispatcher+0x3a0>
    d044:	e59f12e0 	ldr	r1, [pc, #736]	; d32c <RemoteFocusd_FocusMissionDispatcher+0x3a4>
    d048:	e3a02f69 	mov	r2, #420	; 0x1a4
    d04c:	ebffefcf 	bl	8f90 <_init+0x28>
    d050:	e3500000 	cmp	r0, #0	; 0x0
    d054:	ba000094 	blt	d2ac <RemoteFocusd_FocusMissionDispatcher+0x324>
    d058:	ebfff053 	bl	91ac <_init+0x244>
    d05c:	ebffefce 	bl	8f9c <_init+0x34>
    d060:	e5973134 	ldr	r3, [r7, #308]
    d064:	e3530000 	cmp	r3, #0	; 0x0
    d068:	0a00003e 	beq	d168 <RemoteFocusd_FocusMissionDispatcher+0x1e0>
    d06c:	e59710b4 	ldr	r1, [r7, #180]
    d070:	e3510002 	cmp	r1, #2	; 0x2
    d074:	0a000097 	beq	d2d8 <RemoteFocusd_FocusMissionDispatcher+0x350>
    d078:	e59730b8 	ldr	r3, [r7, #184]
    d07c:	e353001e 	cmp	r3, #30	; 0x1e
    d080:	23a0301e 	movcs	r3, #30	; 0x1e
    d084:	e3510000 	cmp	r1, #0	; 0x0
    d088:	e58730b8 	str	r3, [r7, #184]
    d08c:	0a000089 	beq	d2b8 <RemoteFocusd_FocusMissionDispatcher+0x330>
    d090:	e3510001 	cmp	r1, #1	; 0x1
    d094:	0a000096 	beq	d2f4 <RemoteFocusd_FocusMissionDispatcher+0x36c>
    d098:	e3a03000 	mov	r3, #0	; 0x0
    d09c:	e58730b0 	str	r3, [r7, #176]
    d0a0:	ea000030 	b	d168 <RemoteFocusd_FocusMissionDispatcher+0x1e0>
    d0a4:	e59f027c 	ldr	r0, [pc, #636]	; d328 <RemoteFocusd_FocusMissionDispatcher+0x3a0>
    d0a8:	e59f127c 	ldr	r1, [pc, #636]	; d32c <RemoteFocusd_FocusMissionDispatcher+0x3a4>
    d0ac:	e3a02f69 	mov	r2, #420	; 0x1a4
    d0b0:	ebffefb6 	bl	8f90 <_init+0x28>
    d0b4:	e3500000 	cmp	r0, #0	; 0x0
    d0b8:	ba000078 	blt	d2a0 <RemoteFocusd_FocusMissionDispatcher+0x318>
    d0bc:	ebfff03a 	bl	91ac <_init+0x244>
    d0c0:	ebffefb5 	bl	8f9c <_init+0x34>
    d0c4:	e1a01004 	mov	r1, r4
    d0c8:	e1a00007 	mov	r0, r7
    d0cc:	ebfffc2c 	bl	c184 <RemoteFocusd_PerformAutoFocus>
    d0d0:	e1a00007 	mov	r0, r7
    d0d4:	ebfffb71 	bl	bea0 <RemoteFocusd_SaveConfigFile>
    d0d8:	e3500000 	cmp	r0, #0	; 0x0
    d0dc:	1a000025 	bne	d178 <RemoteFocusd_FocusMissionDispatcher+0x1f0>
    d0e0:	e59f0240 	ldr	r0, [pc, #576]	; d328 <RemoteFocusd_FocusMissionDispatcher+0x3a0>
    d0e4:	ebfff033 	bl	91b8 <_init+0x250>
    d0e8:	e3500000 	cmp	r0, #0	; 0x0
    d0ec:	ba000024 	blt	d184 <RemoteFocusd_FocusMissionDispatcher+0x1fc>
    d0f0:	e28dd004 	add	sp, sp, #4	; 0x4
    d0f4:	e8bd45f0 	pop	{r4, r5, r6, r7, r8, sl, lr}
    d0f8:	eaffefa7 	b	8f9c <_init+0x34>
    d0fc:	e59f0224 	ldr	r0, [pc, #548]	; d328 <RemoteFocusd_FocusMissionDispatcher+0x3a0>
    d100:	e59f1224 	ldr	r1, [pc, #548]	; d32c <RemoteFocusd_FocusMissionDispatcher+0x3a4>
    d104:	e3a02f69 	mov	r2, #420	; 0x1a4
    d108:	ebffefa0 	bl	8f90 <_init+0x28>
    d10c:	e3500000 	cmp	r0, #0	; 0x0
    d110:	ba00005f 	blt	d294 <RemoteFocusd_FocusMissionDispatcher+0x30c>
    d114:	ebfff024 	bl	91ac <_init+0x244>
    d118:	ebffef9f 	bl	8f9c <_init+0x34>
    d11c:	e1a01004 	mov	r1, r4
    d120:	e1a00007 	mov	r0, r7
    d124:	ebfffb85 	bl	bf40 <RemoteFocusd_PerformFocusScan>
    d128:	e1a00007 	mov	r0, r7
    d12c:	ebfffb5b 	bl	bea0 <RemoteFocusd_SaveConfigFile>
    d130:	e3500000 	cmp	r0, #0	; 0x0
    d134:	0affffe9 	beq	d0e0 <RemoteFocusd_FocusMissionDispatcher+0x158>
    d138:	ea00000e 	b	d178 <RemoteFocusd_FocusMissionDispatcher+0x1f0>
    d13c:	e59f01e4 	ldr	r0, [pc, #484]	; d328 <RemoteFocusd_FocusMissionDispatcher+0x3a0>
    d140:	e59f11e4 	ldr	r1, [pc, #484]	; d32c <RemoteFocusd_FocusMissionDispatcher+0x3a4>
    d144:	e3a02f69 	mov	r2, #420	; 0x1a4
    d148:	ebffef90 	bl	8f90 <_init+0x28>
    d14c:	e3500000 	cmp	r0, #0	; 0x0
    d150:	ba00004c 	blt	d288 <RemoteFocusd_FocusMissionDispatcher+0x300>
    d154:	ebfff014 	bl	91ac <_init+0x244>
    d158:	ebffef8f 	bl	8f9c <_init+0x34>
    d15c:	e5973134 	ldr	r3, [r7, #308]
    d160:	e3530000 	cmp	r3, #0	; 0x0
    d164:	1a00000a 	bne	d194 <RemoteFocusd_FocusMissionDispatcher+0x20c>
    d168:	e1a00007 	mov	r0, r7
    d16c:	ebfffb4b 	bl	bea0 <RemoteFocusd_SaveConfigFile>
    d170:	e3500000 	cmp	r0, #0	; 0x0
    d174:	0affffd9 	beq	d0e0 <RemoteFocusd_FocusMissionDispatcher+0x158>
    d178:	e59f01b0 	ldr	r0, [pc, #432]	; d330 <RemoteFocusd_FocusMissionDispatcher+0x3a8>
    d17c:	ebfff01c 	bl	91f4 <_init+0x28c>
    d180:	eaffffd6 	b	d0e0 <RemoteFocusd_FocusMissionDispatcher+0x158>
    d184:	e59f01a8 	ldr	r0, [pc, #424]	; d334 <RemoteFocusd_FocusMissionDispatcher+0x3ac>
    d188:	e28dd004 	add	sp, sp, #4	; 0x4
    d18c:	e8bd45f0 	pop	{r4, r5, r6, r7, r8, sl, lr}
    d190:	eafff017 	b	91f4 <_init+0x28c>
    d194:	e59f119c 	ldr	r1, [pc, #412]	; d338 <RemoteFocusd_FocusMissionDispatcher+0x3b0>
    d198:	e1a00004 	mov	r0, r4
    d19c:	ebffefdb 	bl	9110 <_init+0x1a8>
    d1a0:	e59f2194 	ldr	r2, [pc, #404]	; d33c <RemoteFocusd_FocusMissionDispatcher+0x3b4>
    d1a4:	e1a00004 	mov	r0, r4
    d1a8:	e59f1190 	ldr	r1, [pc, #400]	; d340 <RemoteFocusd_FocusMissionDispatcher+0x3b8>
    d1ac:	ebffefd7 	bl	9110 <_init+0x1a8>
    d1b0:	e5973134 	ldr	r3, [r7, #308]
    d1b4:	e3a02000 	mov	r2, #0	; 0x0
    d1b8:	e3530000 	cmp	r3, #0	; 0x0
    d1bc:	e58720a8 	str	r2, [r7, #168]
    d1c0:	0affffe8 	beq	d168 <RemoteFocusd_FocusMissionDispatcher+0x1e0>
    d1c4:	e5973130 	ldr	r3, [r7, #304]
    d1c8:	e597a0f0 	ldr	sl, [r7, #240]
    d1cc:	e1530002 	cmp	r3, r2
    d1d0:	0a00001e 	beq	d250 <RemoteFocusd_FocusMissionDispatcher+0x2c8>
    d1d4:	e59f3168 	ldr	r3, [pc, #360]	; d344 <RemoteFocusd_FocusMissionDispatcher+0x3bc>
    d1d8:	e0821a93 	umull	r1, r2, r3, sl
    d1dc:	e1a082a2 	lsr	r8, r2, #5
    d1e0:	e358000d 	cmp	r8, #13	; 0xd
    d1e4:	8a00004a 	bhi	d314 <RemoteFocusd_FocusMissionDispatcher+0x38c>
    d1e8:	e59f2158 	ldr	r2, [pc, #344]	; d348 <RemoteFocusd_FocusMissionDispatcher+0x3c0>
    d1ec:	e2883001 	add	r3, r8, #1	; 0x1
    d1f0:	e7920103 	ldr	r0, [r2, r3, lsl #2]
    d1f4:	e7926108 	ldr	r6, [r2, r8, lsl #2]
    d1f8:	e0600006 	rsb	r0, r0, r6
    d1fc:	e3500000 	cmp	r0, #0	; 0x0
    d200:	b2600000 	rsblt	r0, r0, #0	; 0x0
    d204:	eb000162 	bl	d794 <__aeabi_ui2d>
    d208:	e3a02000 	mov	r2, #0	; 0x0
    d20c:	e59f3138 	ldr	r3, [pc, #312]	; d34c <RemoteFocusd_FocusMissionDispatcher+0x3c4>
    d210:	eb00023a 	bl	db00 <__aeabi_ddiv>
    d214:	e1a04000 	mov	r4, r0
    d218:	e1a00288 	lsl	r0, r8, #5
    d21c:	e0400188 	sub	r0, r0, r8, lsl #3
    d220:	e0680000 	rsb	r0, r8, r0
    d224:	e04a0080 	sub	r0, sl, r0, lsl #1
    d228:	e1a05001 	mov	r5, r1
    d22c:	eb000158 	bl	d794 <__aeabi_ui2d>
    d230:	e1a02000 	mov	r2, r0
    d234:	e1a03001 	mov	r3, r1
    d238:	e1a00004 	mov	r0, r4
    d23c:	e1a01005 	mov	r1, r5
    d240:	eb000193 	bl	d894 <__aeabi_dmul>
    d244:	eb0002ae 	bl	dd04 <__aeabi_d2uiz>
    d248:	e0800006 	add	r0, r0, r6
    d24c:	e58700c4 	str	r0, [r7, #196]
    d250:	e3a03003 	mov	r3, #3	; 0x3
    d254:	e3a02001 	mov	r2, #1	; 0x1
    d258:	e58730b0 	str	r3, [r7, #176]
    d25c:	e58720a4 	str	r2, [r7, #164]
    d260:	e5970120 	ldr	r0, [r7, #288]
    d264:	e0822003 	add	r2, r2, r3
    d268:	e28710a4 	add	r1, r7, #164	; 0xa4
    d26c:	e283303d 	add	r3, r3, #61	; 0x3d
    d270:	ebffefd9 	bl	91dc <_init+0x274>
    d274:	e3500000 	cmp	r0, #0	; 0x0
    d278:	aaffffba 	bge	d168 <RemoteFocusd_FocusMissionDispatcher+0x1e0>
    d27c:	e59f00cc 	ldr	r0, [pc, #204]	; d350 <RemoteFocusd_FocusMissionDispatcher+0x3c8>
    d280:	ebffefdb 	bl	91f4 <_init+0x28c>
    d284:	eaffffb7 	b	d168 <RemoteFocusd_FocusMissionDispatcher+0x1e0>
    d288:	e59f00c4 	ldr	r0, [pc, #196]	; d354 <RemoteFocusd_FocusMissionDispatcher+0x3cc>
    d28c:	ebffefd8 	bl	91f4 <_init+0x28c>
    d290:	eaffffb1 	b	d15c <RemoteFocusd_FocusMissionDispatcher+0x1d4>
    d294:	e59f00b8 	ldr	r0, [pc, #184]	; d354 <RemoteFocusd_FocusMissionDispatcher+0x3cc>
    d298:	ebffefd5 	bl	91f4 <_init+0x28c>
    d29c:	eaffff9e 	b	d11c <RemoteFocusd_FocusMissionDispatcher+0x194>
    d2a0:	e59f00ac 	ldr	r0, [pc, #172]	; d354 <RemoteFocusd_FocusMissionDispatcher+0x3cc>
    d2a4:	ebffefd2 	bl	91f4 <_init+0x28c>
    d2a8:	eaffff85 	b	d0c4 <RemoteFocusd_FocusMissionDispatcher+0x13c>
    d2ac:	e59f00a0 	ldr	r0, [pc, #160]	; d354 <RemoteFocusd_FocusMissionDispatcher+0x3cc>
    d2b0:	ebffefcf 	bl	91f4 <_init+0x28c>
    d2b4:	eaffff69 	b	d060 <RemoteFocusd_FocusMissionDispatcher+0xd8>
    d2b8:	e59720a8 	ldr	r2, [r7, #168]
    d2bc:	e1a01004 	mov	r1, r4
    d2c0:	e0832002 	add	r2, r3, r2
    d2c4:	e1a00007 	mov	r0, r7
    d2c8:	ebfff96f 	bl	b88c <RemoteFocusd_MoveFocusMotor>
    d2cc:	e3500000 	cmp	r0, #0	; 0x0
    d2d0:	1affffa4 	bne	d168 <RemoteFocusd_FocusMissionDispatcher+0x1e0>
    d2d4:	eaffff6f 	b	d098 <RemoteFocusd_FocusMissionDispatcher+0x110>
    d2d8:	e1a01004 	mov	r1, r4
    d2dc:	e1a00007 	mov	r0, r7
    d2e0:	e59720bc 	ldr	r2, [r7, #188]
    d2e4:	ebfff968 	bl	b88c <RemoteFocusd_MoveFocusMotor>
    d2e8:	e3500000 	cmp	r0, #0	; 0x0
    d2ec:	1affff9d 	bne	d168 <RemoteFocusd_FocusMissionDispatcher+0x1e0>
    d2f0:	eaffff68 	b	d098 <RemoteFocusd_FocusMissionDispatcher+0x110>
    d2f4:	e59720a8 	ldr	r2, [r7, #168]
    d2f8:	e1a01004 	mov	r1, r4
    d2fc:	e0632002 	rsb	r2, r3, r2
    d300:	e1a00007 	mov	r0, r7
    d304:	ebfff960 	bl	b88c <RemoteFocusd_MoveFocusMotor>
    d308:	e3500000 	cmp	r0, #0	; 0x0
    d30c:	1affff95 	bne	d168 <RemoteFocusd_FocusMissionDispatcher+0x1e0>
    d310:	eaffff60 	b	d098 <RemoteFocusd_FocusMissionDispatcher+0x110>
    d314:	e59f302c 	ldr	r3, [pc, #44]	; d348 <RemoteFocusd_FocusMissionDispatcher+0x3c0>
    d318:	e5932038 	ldr	r2, [r3, #56]
    d31c:	e58720c4 	str	r2, [r7, #196]
    d320:	eaffffca 	b	d250 <RemoteFocusd_FocusMissionDispatcher+0x2c8>
    d324:	004c4b40 	.word	0x004c4b40
    d328:	0000ed10 	.word	0x0000ed10
    d32c:	00000241 	.word	0x00000241
    d330:	0000f35c 	.word	0x0000f35c
    d334:	0000f1e4 	.word	0x0000f1e4
    d338:	00004d01 	.word	0x00004d01
    d33c:	00000d5a 	.word	0x00000d5a
    d340:	40044d06 	.word	0x40044d06
    d344:	b21642c9 	.word	0xb21642c9
    d348:	0000f044 	.word	0x0000f044
    d34c:	40470000 	.word	0x40470000
    d350:	0000e734 	.word	0x0000e734
    d354:	0000f21c 	.word	0x0000f21c

0000d358 <RemoteFocusd_FocusMotorThread>:
    d358:	e92d41f0 	push	{r4, r5, r6, r7, r8, lr}
    d35c:	e1a06000 	mov	r6, r0
    d360:	e5900134 	ldr	r0, [r0, #308]
    d364:	e24dd098 	sub	sp, sp, #152	; 0x98
    d368:	e3500000 	cmp	r0, #0	; 0x0
    d36c:	1a000001 	bne	d378 <RemoteFocusd_FocusMotorThread+0x20>
    d370:	e28dd098 	add	sp, sp, #152	; 0x98
    d374:	e8bd81f0 	pop	{r4, r5, r6, r7, r8, pc}
    d378:	e59f3140 	ldr	r3, [pc, #320]	; d4c0 <RemoteFocusd_FocusMotorThread+0x168>
    d37c:	e59f0140 	ldr	r0, [pc, #320]	; d4c4 <RemoteFocusd_FocusMotorThread+0x16c>
    d380:	e58630c8 	str	r3, [r6, #200]
    d384:	e3a01001 	mov	r1, #1	; 0x1
    d388:	ebffef00 	bl	8f90 <_init+0x28>
    d38c:	e2507000 	subs	r7, r0, #0	; 0x0
    d390:	aa000006 	bge	d3b0 <RemoteFocusd_FocusMotorThread+0x58>
    d394:	e59f012c 	ldr	r0, [pc, #300]	; d4c8 <RemoteFocusd_FocusMotorThread+0x170>
    d398:	ebffef95 	bl	91f4 <_init+0x28c>
    d39c:	e59f3128 	ldr	r3, [pc, #296]	; d4cc <RemoteFocusd_FocusMotorThread+0x174>
    d3a0:	e3a02000 	mov	r2, #0	; 0x0
    d3a4:	e3e00000 	mvn	r0, #0	; 0x0
    d3a8:	e5832000 	str	r2, [r3]
    d3ac:	eaffffef 	b	d370 <RemoteFocusd_FocusMotorThread+0x18>
    d3b0:	e59f1118 	ldr	r1, [pc, #280]	; d4d0 <RemoteFocusd_FocusMotorThread+0x178>
    d3b4:	ebffef55 	bl	9110 <_init+0x1a8>
    d3b8:	e59f810c 	ldr	r8, [pc, #268]	; d4cc <RemoteFocusd_FocusMotorThread+0x174>
    d3bc:	e5984000 	ldr	r4, [r8]
    d3c0:	e3540000 	cmp	r4, #0	; 0x0
    d3c4:	0a000030 	beq	d48c <RemoteFocusd_FocusMotorThread+0x134>
    d3c8:	e3a03000 	mov	r3, #0	; 0x0
    d3cc:	e58d300c 	str	r3, [sp, #12]
    d3d0:	e28d100c 	add	r1, sp, #12	; 0xc
    d3d4:	e2833004 	add	r3, r3, #4	; 0x4
    d3d8:	e3a05000 	mov	r5, #0	; 0x0
    d3dc:	e7835001 	str	r5, [r3, r1]
    d3e0:	e2833004 	add	r3, r3, #4	; 0x4
    d3e4:	e3530080 	cmp	r3, #128	; 0x80
    d3e8:	1afffffa 	bne	d3d8 <RemoteFocusd_FocusMotorThread+0x80>
    d3ec:	e5960124 	ldr	r0, [r6, #292]
    d3f0:	e28d3098 	add	r3, sp, #152	; 0x98
    d3f4:	e1a0e2a0 	lsr	lr, r0, #5
    d3f8:	e1a0e10e 	lsl	lr, lr, #2
    d3fc:	e08ee003 	add	lr, lr, r3
    d400:	e51e408c 	ldr	r4, [lr, #-140]
    d404:	e200201f 	and	r2, r0, #31	; 0x1f
    d408:	e3a03001 	mov	r3, #1	; 0x1
    d40c:	e1844213 	orr	r4, r4, r3, lsl r2
    d410:	e0800003 	add	r0, r0, r3
    d414:	e50e408c 	str	r4, [lr, #-140]
    d418:	e3a0c003 	mov	ip, #3	; 0x3
    d41c:	e28de08c 	add	lr, sp, #140	; 0x8c
    d420:	e1a02005 	mov	r2, r5
    d424:	e1a03005 	mov	r3, r5
    d428:	e58dc08c 	str	ip, [sp, #140]
    d42c:	e58de000 	str	lr, [sp]
    d430:	e58d5090 	str	r5, [sp, #144]
    d434:	ebffef59 	bl	91a0 <_init+0x238>
    d438:	e1500005 	cmp	r0, r5
    d43c:	ba000018 	blt	d4a4 <RemoteFocusd_FocusMotorThread+0x14c>
    d440:	0a00000e 	beq	d480 <RemoteFocusd_FocusMotorThread+0x128>
    d444:	e5960124 	ldr	r0, [r6, #292]
    d448:	e28d1094 	add	r1, sp, #148	; 0x94
    d44c:	e3a02004 	mov	r2, #4	; 0x4
    d450:	ebffef22 	bl	90e0 <_init+0x178>
    d454:	e59630a4 	ldr	r3, [r6, #164]
    d458:	e3530000 	cmp	r3, #0	; 0x0
    d45c:	0affffd6 	beq	d3bc <RemoteFocusd_FocusMotorThread+0x64>
    d460:	e1a01007 	mov	r1, r7
    d464:	e1a00006 	mov	r0, r6
    d468:	e58650a4 	str	r5, [r6, #164]
    d46c:	ebfffec5 	bl	cf88 <RemoteFocusd_FocusMissionDispatcher>
    d470:	e1a00007 	mov	r0, r7
    d474:	e59f1054 	ldr	r1, [pc, #84]	; d4d0 <RemoteFocusd_FocusMotorThread+0x178>
    d478:	ebffef24 	bl	9110 <_init+0x1a8>
    d47c:	eaffffce 	b	d3bc <RemoteFocusd_FocusMotorThread+0x64>
    d480:	e59f004c 	ldr	r0, [pc, #76]	; d4d4 <RemoteFocusd_FocusMotorThread+0x17c>
    d484:	ebffef5a 	bl	91f4 <_init+0x28c>
    d488:	eaffffcb 	b	d3bc <RemoteFocusd_FocusMotorThread+0x64>
    d48c:	e1a00007 	mov	r0, r7
    d490:	ebffef45 	bl	91ac <_init+0x244>
    d494:	e59f3030 	ldr	r3, [pc, #48]	; d4cc <RemoteFocusd_FocusMotorThread+0x174>
    d498:	e1a00004 	mov	r0, r4
    d49c:	e5834000 	str	r4, [r3]
    d4a0:	eaffffb2 	b	d370 <RemoteFocusd_FocusMotorThread+0x18>
    d4a4:	ebffef6a 	bl	9254 <_init+0x2ec>
    d4a8:	e5903000 	ldr	r3, [r0]
    d4ac:	e3530004 	cmp	r3, #4	; 0x4
    d4b0:	0affffc1 	beq	d3bc <RemoteFocusd_FocusMotorThread+0x64>
    d4b4:	e59f001c 	ldr	r0, [pc, #28]	; d4d8 <RemoteFocusd_FocusMotorThread+0x180>
    d4b8:	ebffef4d 	bl	91f4 <_init+0x28c>
    d4bc:	eaffffbe 	b	d3bc <RemoteFocusd_FocusMotorThread+0x64>
    d4c0:	00000c92 	.word	0x00000c92
    d4c4:	0000f3cc 	.word	0x0000f3cc
    d4c8:	0000f3a4 	.word	0x0000f3a4
    d4cc:	0001762c 	.word	0x0001762c
    d4d0:	00004d05 	.word	0x00004d05
    d4d4:	0000f024 	.word	0x0000f024
    d4d8:	0000efd0 	.word	0x0000efd0

0000d4dc <__aeabi_drsub>:
    d4dc:	e2211102 	eor	r1, r1, #-2147483648	; 0x80000000
    d4e0:	ea000000 	b	d4e8 <__adddf3>

0000d4e4 <__aeabi_dsub>:
    d4e4:	e2233102 	eor	r3, r3, #-2147483648	; 0x80000000

0000d4e8 <__adddf3>:
    d4e8:	e92d4030 	push	{r4, r5, lr}
    d4ec:	e1a04081 	lsl	r4, r1, #1
    d4f0:	e1a05083 	lsl	r5, r3, #1
    d4f4:	e1340005 	teq	r4, r5
    d4f8:	01300002 	teqeq	r0, r2
    d4fc:	1194c000 	orrsne	ip, r4, r0
    d500:	1195c002 	orrsne	ip, r5, r2
    d504:	11f0cac4 	mvnsne	ip, r4, asr #21
    d508:	11f0cac5 	mvnsne	ip, r5, asr #21
    d50c:	0a000079 	beq	d6f8 <__adddf3+0x210>
    d510:	e1a04aa4 	lsr	r4, r4, #21
    d514:	e0745aa5 	rsbs	r5, r4, r5, lsr #21
    d518:	b2655000 	rsblt	r5, r5, #0	; 0x0
    d51c:	da000006 	ble	d53c <__adddf3+0x54>
    d520:	e0844005 	add	r4, r4, r5
    d524:	e0202002 	eor	r2, r0, r2
    d528:	e0213003 	eor	r3, r1, r3
    d52c:	e0220000 	eor	r0, r2, r0
    d530:	e0231001 	eor	r1, r3, r1
    d534:	e0202002 	eor	r2, r0, r2
    d538:	e0213003 	eor	r3, r1, r3
    d53c:	e3550036 	cmp	r5, #54	; 0x36
    d540:	88bd8030 	pophi	{r4, r5, pc}
    d544:	e3110102 	tst	r1, #-2147483648	; 0x80000000
    d548:	e1a01601 	lsl	r1, r1, #12
    d54c:	e3a0c601 	mov	ip, #1048576	; 0x100000
    d550:	e18c1621 	orr	r1, ip, r1, lsr #12
    d554:	0a000001 	beq	d560 <__adddf3+0x78>
    d558:	e2700000 	rsbs	r0, r0, #0	; 0x0
    d55c:	e2e11000 	rsc	r1, r1, #0	; 0x0
    d560:	e3130102 	tst	r3, #-2147483648	; 0x80000000
    d564:	e1a03603 	lsl	r3, r3, #12
    d568:	e18c3623 	orr	r3, ip, r3, lsr #12
    d56c:	0a000001 	beq	d578 <__adddf3+0x90>
    d570:	e2722000 	rsbs	r2, r2, #0	; 0x0
    d574:	e2e33000 	rsc	r3, r3, #0	; 0x0
    d578:	e1340005 	teq	r4, r5
    d57c:	0a000057 	beq	d6e0 <__adddf3+0x1f8>
    d580:	e2444001 	sub	r4, r4, #1	; 0x1
    d584:	e275e020 	rsbs	lr, r5, #32	; 0x20
    d588:	ba000005 	blt	d5a4 <__adddf3+0xbc>
    d58c:	e1a0ce12 	lsl	ip, r2, lr
    d590:	e0900532 	adds	r0, r0, r2, lsr r5
    d594:	e2a11000 	adc	r1, r1, #0	; 0x0
    d598:	e0900e13 	adds	r0, r0, r3, lsl lr
    d59c:	e0b11553 	adcs	r1, r1, r3, asr r5
    d5a0:	ea000006 	b	d5c0 <__adddf3+0xd8>
    d5a4:	e2455020 	sub	r5, r5, #32	; 0x20
    d5a8:	e28ee020 	add	lr, lr, #32	; 0x20
    d5ac:	e3520001 	cmp	r2, #1	; 0x1
    d5b0:	e1a0ce13 	lsl	ip, r3, lr
    d5b4:	238cc002 	orrcs	ip, ip, #2	; 0x2
    d5b8:	e0900553 	adds	r0, r0, r3, asr r5
    d5bc:	e0b11fc3 	adcs	r1, r1, r3, asr #31
    d5c0:	e2015102 	and	r5, r1, #-2147483648	; 0x80000000
    d5c4:	5a000002 	bpl	d5d4 <__adddf3+0xec>
    d5c8:	e27cc000 	rsbs	ip, ip, #0	; 0x0
    d5cc:	e2f00000 	rscs	r0, r0, #0	; 0x0
    d5d0:	e2e11000 	rsc	r1, r1, #0	; 0x0
    d5d4:	e3510601 	cmp	r1, #1048576	; 0x100000
    d5d8:	3a00000e 	bcc	d618 <__adddf3+0x130>
    d5dc:	e3510602 	cmp	r1, #2097152	; 0x200000
    d5e0:	3a000006 	bcc	d600 <__adddf3+0x118>
    d5e4:	e1b010a1 	lsrs	r1, r1, #1
    d5e8:	e1b00060 	rrxs	r0, r0
    d5ec:	e1a0c06c 	rrx	ip, ip
    d5f0:	e2844001 	add	r4, r4, #1	; 0x1
    d5f4:	e1a02a84 	lsl	r2, r4, #21
    d5f8:	e3720501 	cmn	r2, #4194304	; 0x400000
    d5fc:	2a000055 	bcs	d758 <__adddf3+0x270>
    d600:	e35c0102 	cmp	ip, #-2147483648	; 0x80000000
    d604:	01b0c0a0 	lsrseq	ip, r0, #1
    d608:	e2b00000 	adcs	r0, r0, #0	; 0x0
    d60c:	e0a11a04 	adc	r1, r1, r4, lsl #20
    d610:	e1811005 	orr	r1, r1, r5
    d614:	e8bd8030 	pop	{r4, r5, pc}
    d618:	e1b0c08c 	lsls	ip, ip, #1
    d61c:	e0b00000 	adcs	r0, r0, r0
    d620:	e0a11001 	adc	r1, r1, r1
    d624:	e3110601 	tst	r1, #1048576	; 0x100000
    d628:	e2444001 	sub	r4, r4, #1	; 0x1
    d62c:	1afffff3 	bne	d600 <__adddf3+0x118>
    d630:	e3310000 	teq	r1, #0	; 0x0
    d634:	01a01000 	moveq	r1, r0
    d638:	03a00000 	moveq	r0, #0	; 0x0
    d63c:	e16f3f11 	clz	r3, r1
    d640:	02833020 	addeq	r3, r3, #32	; 0x20
    d644:	e243300b 	sub	r3, r3, #11	; 0xb
    d648:	e2532020 	subs	r2, r3, #32	; 0x20
    d64c:	aa000007 	bge	d670 <__adddf3+0x188>
    d650:	e292200c 	adds	r2, r2, #12	; 0xc
    d654:	da000004 	ble	d66c <__adddf3+0x184>
    d658:	e282c014 	add	ip, r2, #20	; 0x14
    d65c:	e262200c 	rsb	r2, r2, #12	; 0xc
    d660:	e1a00c11 	lsl	r0, r1, ip
    d664:	e1a01231 	lsr	r1, r1, r2
    d668:	ea000004 	b	d680 <__adddf3+0x198>
    d66c:	e2822014 	add	r2, r2, #20	; 0x14
    d670:	d262c020 	rsble	ip, r2, #32	; 0x20
    d674:	e1a01211 	lsl	r1, r1, r2
    d678:	d1811c30 	orrle	r1, r1, r0, lsr ip
    d67c:	d1a00210 	lslle	r0, r0, r2
    d680:	e0544003 	subs	r4, r4, r3
    d684:	a0811a04 	addge	r1, r1, r4, lsl #20
    d688:	a1811005 	orrge	r1, r1, r5
    d68c:	a8bd8030 	popge	{r4, r5, pc}
    d690:	e1e04004 	mvn	r4, r4
    d694:	e254401f 	subs	r4, r4, #31	; 0x1f
    d698:	aa00000d 	bge	d6d4 <__adddf3+0x1ec>
    d69c:	e294400c 	adds	r4, r4, #12	; 0xc
    d6a0:	ca000005 	bgt	d6bc <__adddf3+0x1d4>
    d6a4:	e2844014 	add	r4, r4, #20	; 0x14
    d6a8:	e2642020 	rsb	r2, r4, #32	; 0x20
    d6ac:	e1a00430 	lsr	r0, r0, r4
    d6b0:	e1800211 	orr	r0, r0, r1, lsl r2
    d6b4:	e1851431 	orr	r1, r5, r1, lsr r4
    d6b8:	e8bd8030 	pop	{r4, r5, pc}
    d6bc:	e264400c 	rsb	r4, r4, #12	; 0xc
    d6c0:	e2642020 	rsb	r2, r4, #32	; 0x20
    d6c4:	e1a00230 	lsr	r0, r0, r2
    d6c8:	e1800411 	orr	r0, r0, r1, lsl r4
    d6cc:	e1a01005 	mov	r1, r5
    d6d0:	e8bd8030 	pop	{r4, r5, pc}
    d6d4:	e1a00431 	lsr	r0, r1, r4
    d6d8:	e1a01005 	mov	r1, r5
    d6dc:	e8bd8030 	pop	{r4, r5, pc}
    d6e0:	e3340000 	teq	r4, #0	; 0x0
    d6e4:	e2233601 	eor	r3, r3, #1048576	; 0x100000
    d6e8:	02211601 	eoreq	r1, r1, #1048576	; 0x100000
    d6ec:	02844001 	addeq	r4, r4, #1	; 0x1
    d6f0:	12455001 	subne	r5, r5, #1	; 0x1
    d6f4:	eaffffa1 	b	d580 <__adddf3+0x98>
    d6f8:	e1f0cac4 	mvns	ip, r4, asr #21
    d6fc:	11f0cac5 	mvnsne	ip, r5, asr #21
    d700:	0a000018 	beq	d768 <__adddf3+0x280>
    d704:	e1340005 	teq	r4, r5
    d708:	01300002 	teqeq	r0, r2
    d70c:	0a000003 	beq	d720 <__adddf3+0x238>
    d710:	e194c000 	orrs	ip, r4, r0
    d714:	01a01003 	moveq	r1, r3
    d718:	01a00002 	moveq	r0, r2
    d71c:	e8bd8030 	pop	{r4, r5, pc}
    d720:	e1310003 	teq	r1, r3
    d724:	13a01000 	movne	r1, #0	; 0x0
    d728:	13a00000 	movne	r0, #0	; 0x0
    d72c:	18bd8030 	popne	{r4, r5, pc}
    d730:	e1b0caa4 	lsrs	ip, r4, #21
    d734:	1a000003 	bne	d748 <__adddf3+0x260>
    d738:	e1b00080 	lsls	r0, r0, #1
    d73c:	e0b11001 	adcs	r1, r1, r1
    d740:	23811102 	orrcs	r1, r1, #-2147483648	; 0x80000000
    d744:	e8bd8030 	pop	{r4, r5, pc}
    d748:	e2944501 	adds	r4, r4, #4194304	; 0x400000
    d74c:	32811601 	addcc	r1, r1, #1048576	; 0x100000
    d750:	38bd8030 	popcc	{r4, r5, pc}
    d754:	e2015102 	and	r5, r1, #-2147483648	; 0x80000000
    d758:	e385147f 	orr	r1, r5, #2130706432	; 0x7f000000
    d75c:	e381160f 	orr	r1, r1, #15728640	; 0xf00000
    d760:	e3a00000 	mov	r0, #0	; 0x0
    d764:	e8bd8030 	pop	{r4, r5, pc}
    d768:	e1f0cac4 	mvns	ip, r4, asr #21
    d76c:	11a01003 	movne	r1, r3
    d770:	11a00002 	movne	r0, r2
    d774:	01f0cac5 	mvnseq	ip, r5, asr #21
    d778:	11a03001 	movne	r3, r1
    d77c:	11a02000 	movne	r2, r0
    d780:	e1904601 	orrs	r4, r0, r1, lsl #12
    d784:	01925603 	orrseq	r5, r2, r3, lsl #12
    d788:	01310003 	teqeq	r1, r3
    d78c:	13811702 	orrne	r1, r1, #524288	; 0x80000
    d790:	e8bd8030 	pop	{r4, r5, pc}

0000d794 <__aeabi_ui2d>:
    d794:	e3300000 	teq	r0, #0	; 0x0
    d798:	03a01000 	moveq	r1, #0	; 0x0
    d79c:	012fff1e 	bxeq	lr
    d7a0:	e92d4030 	push	{r4, r5, lr}
    d7a4:	e3a04b01 	mov	r4, #1024	; 0x400
    d7a8:	e2844032 	add	r4, r4, #50	; 0x32
    d7ac:	e3a05000 	mov	r5, #0	; 0x0
    d7b0:	e3a01000 	mov	r1, #0	; 0x0
    d7b4:	eaffff9d 	b	d630 <__adddf3+0x148>

0000d7b8 <__aeabi_i2d>:
    d7b8:	e3300000 	teq	r0, #0	; 0x0
    d7bc:	03a01000 	moveq	r1, #0	; 0x0
    d7c0:	012fff1e 	bxeq	lr
    d7c4:	e92d4030 	push	{r4, r5, lr}
    d7c8:	e3a04b01 	mov	r4, #1024	; 0x400
    d7cc:	e2844032 	add	r4, r4, #50	; 0x32
    d7d0:	e2105102 	ands	r5, r0, #-2147483648	; 0x80000000
    d7d4:	42600000 	rsbmi	r0, r0, #0	; 0x0
    d7d8:	e3a01000 	mov	r1, #0	; 0x0
    d7dc:	eaffff93 	b	d630 <__adddf3+0x148>

0000d7e0 <__aeabi_f2d>:
    d7e0:	e1b02080 	lsls	r2, r0, #1
    d7e4:	e1a011c2 	asr	r1, r2, #3
    d7e8:	e1a01061 	rrx	r1, r1
    d7ec:	e1a00e02 	lsl	r0, r2, #28
    d7f0:	121234ff 	andsne	r3, r2, #-16777216	; 0xff000000
    d7f4:	133304ff 	teqne	r3, #-16777216	; 0xff000000
    d7f8:	1221130e 	eorne	r1, r1, #939524096	; 0x38000000
    d7fc:	112fff1e 	bxne	lr
    d800:	e3320000 	teq	r2, #0	; 0x0
    d804:	133304ff 	teqne	r3, #-16777216	; 0xff000000
    d808:	012fff1e 	bxeq	lr
    d80c:	e92d4030 	push	{r4, r5, lr}
    d810:	e3a04d0e 	mov	r4, #896	; 0x380
    d814:	e2015102 	and	r5, r1, #-2147483648	; 0x80000000
    d818:	e3c11102 	bic	r1, r1, #-2147483648	; 0x80000000
    d81c:	eaffff83 	b	d630 <__adddf3+0x148>

0000d820 <__aeabi_ul2d>:
    d820:	e1902001 	orrs	r2, r0, r1
    d824:	012fff1e 	bxeq	lr
    d828:	e92d4030 	push	{r4, r5, lr}
    d82c:	e3a05000 	mov	r5, #0	; 0x0
    d830:	ea000006 	b	d850 <__aeabi_l2d+0x1c>

0000d834 <__aeabi_l2d>:
    d834:	e1902001 	orrs	r2, r0, r1
    d838:	012fff1e 	bxeq	lr
    d83c:	e92d4030 	push	{r4, r5, lr}
    d840:	e2115102 	ands	r5, r1, #-2147483648	; 0x80000000
    d844:	5a000001 	bpl	d850 <__aeabi_l2d+0x1c>
    d848:	e2700000 	rsbs	r0, r0, #0	; 0x0
    d84c:	e2e11000 	rsc	r1, r1, #0	; 0x0
    d850:	e3a04b01 	mov	r4, #1024	; 0x400
    d854:	e2844032 	add	r4, r4, #50	; 0x32
    d858:	e1b0cb21 	lsrs	ip, r1, #22
    d85c:	0affff5c 	beq	d5d4 <__adddf3+0xec>
    d860:	e3a02003 	mov	r2, #3	; 0x3
    d864:	e1b0c1ac 	lsrs	ip, ip, #3
    d868:	12822003 	addne	r2, r2, #3	; 0x3
    d86c:	e1b0c1ac 	lsrs	ip, ip, #3
    d870:	12822003 	addne	r2, r2, #3	; 0x3
    d874:	e08221ac 	add	r2, r2, ip, lsr #3
    d878:	e2623020 	rsb	r3, r2, #32	; 0x20
    d87c:	e1a0c310 	lsl	ip, r0, r3
    d880:	e1a00230 	lsr	r0, r0, r2
    d884:	e1800311 	orr	r0, r0, r1, lsl r3
    d888:	e1a01231 	lsr	r1, r1, r2
    d88c:	e0844002 	add	r4, r4, r2
    d890:	eaffff4f 	b	d5d4 <__adddf3+0xec>

0000d894 <__aeabi_dmul>:
    d894:	e92d4070 	push	{r4, r5, r6, lr}
    d898:	e3a0c0ff 	mov	ip, #255	; 0xff
    d89c:	e38ccc07 	orr	ip, ip, #1792	; 0x700
    d8a0:	e01c4a21 	ands	r4, ip, r1, lsr #20
    d8a4:	101c5a23 	andsne	r5, ip, r3, lsr #20
    d8a8:	1134000c 	teqne	r4, ip
    d8ac:	1135000c 	teqne	r5, ip
    d8b0:	0b00006f 	bleq	da74 <__aeabi_dmul+0x1e0>
    d8b4:	e0844005 	add	r4, r4, r5
    d8b8:	e0216003 	eor	r6, r1, r3
    d8bc:	e1c11a8c 	bic	r1, r1, ip, lsl #21
    d8c0:	e1c33a8c 	bic	r3, r3, ip, lsl #21
    d8c4:	e1905601 	orrs	r5, r0, r1, lsl #12
    d8c8:	11925603 	orrsne	r5, r2, r3, lsl #12
    d8cc:	e3811601 	orr	r1, r1, #1048576	; 0x100000
    d8d0:	e3833601 	orr	r3, r3, #1048576	; 0x100000
    d8d4:	0a00001c 	beq	d94c <__aeabi_dmul+0xb8>
    d8d8:	e08ec290 	umull	ip, lr, r0, r2
    d8dc:	e3a05000 	mov	r5, #0	; 0x0
    d8e0:	e0a5e291 	umlal	lr, r5, r1, r2
    d8e4:	e2062102 	and	r2, r6, #-2147483648	; 0x80000000
    d8e8:	e0a5e390 	umlal	lr, r5, r0, r3
    d8ec:	e3a06000 	mov	r6, #0	; 0x0
    d8f0:	e0a65391 	umlal	r5, r6, r1, r3
    d8f4:	e33c0000 	teq	ip, #0	; 0x0
    d8f8:	138ee001 	orrne	lr, lr, #1	; 0x1
    d8fc:	e24440ff 	sub	r4, r4, #255	; 0xff
    d900:	e3560c02 	cmp	r6, #512	; 0x200
    d904:	e2c44c03 	sbc	r4, r4, #768	; 0x300
    d908:	2a000002 	bcs	d918 <__aeabi_dmul+0x84>
    d90c:	e1b0e08e 	lsls	lr, lr, #1
    d910:	e0b55005 	adcs	r5, r5, r5
    d914:	e0a66006 	adc	r6, r6, r6
    d918:	e1821586 	orr	r1, r2, r6, lsl #11
    d91c:	e1811aa5 	orr	r1, r1, r5, lsr #21
    d920:	e1a00585 	lsl	r0, r5, #11
    d924:	e1800aae 	orr	r0, r0, lr, lsr #21
    d928:	e1a0e58e 	lsl	lr, lr, #11
    d92c:	e254c0fd 	subs	ip, r4, #253	; 0xfd
    d930:	835c0c07 	cmphi	ip, #1792	; 0x700
    d934:	8a00000f 	bhi	d978 <__aeabi_dmul+0xe4>
    d938:	e35e0102 	cmp	lr, #-2147483648	; 0x80000000
    d93c:	01b0e0a0 	lsrseq	lr, r0, #1
    d940:	e2b00000 	adcs	r0, r0, #0	; 0x0
    d944:	e0a11a04 	adc	r1, r1, r4, lsl #20
    d948:	e8bd8070 	pop	{r4, r5, r6, pc}
    d94c:	e2066102 	and	r6, r6, #-2147483648	; 0x80000000
    d950:	e1861001 	orr	r1, r6, r1
    d954:	e1800002 	orr	r0, r0, r2
    d958:	e0211003 	eor	r1, r1, r3
    d95c:	e05440ac 	subs	r4, r4, ip, lsr #1
    d960:	c074500c 	rsbsgt	r5, r4, ip
    d964:	c1811a04 	orrgt	r1, r1, r4, lsl #20
    d968:	c8bd8070 	popgt	{r4, r5, r6, pc}
    d96c:	e3811601 	orr	r1, r1, #1048576	; 0x100000
    d970:	e3a0e000 	mov	lr, #0	; 0x0
    d974:	e2544001 	subs	r4, r4, #1	; 0x1
    d978:	ca000058 	bgt	dae0 <__aeabi_dmul+0x24c>
    d97c:	e3740036 	cmn	r4, #54	; 0x36
    d980:	d3a00000 	movle	r0, #0	; 0x0
    d984:	d2011102 	andle	r1, r1, #-2147483648	; 0x80000000
    d988:	d8bd8070 	pople	{r4, r5, r6, pc}
    d98c:	e2644000 	rsb	r4, r4, #0	; 0x0
    d990:	e2544020 	subs	r4, r4, #32	; 0x20
    d994:	aa000018 	bge	d9fc <__aeabi_dmul+0x168>
    d998:	e294400c 	adds	r4, r4, #12	; 0xc
    d99c:	ca00000b 	bgt	d9d0 <__aeabi_dmul+0x13c>
    d9a0:	e2844014 	add	r4, r4, #20	; 0x14
    d9a4:	e2645020 	rsb	r5, r4, #32	; 0x20
    d9a8:	e1a03510 	lsl	r3, r0, r5
    d9ac:	e1a00430 	lsr	r0, r0, r4
    d9b0:	e1800511 	orr	r0, r0, r1, lsl r5
    d9b4:	e2012102 	and	r2, r1, #-2147483648	; 0x80000000
    d9b8:	e3c11102 	bic	r1, r1, #-2147483648	; 0x80000000
    d9bc:	e0900fa3 	adds	r0, r0, r3, lsr #31
    d9c0:	e0a21431 	adc	r1, r2, r1, lsr r4
    d9c4:	e19ee083 	orrs	lr, lr, r3, lsl #1
    d9c8:	01c00fa3 	biceq	r0, r0, r3, lsr #31
    d9cc:	e8bd8070 	pop	{r4, r5, r6, pc}
    d9d0:	e264400c 	rsb	r4, r4, #12	; 0xc
    d9d4:	e2645020 	rsb	r5, r4, #32	; 0x20
    d9d8:	e1a03410 	lsl	r3, r0, r4
    d9dc:	e1a00530 	lsr	r0, r0, r5
    d9e0:	e1800411 	orr	r0, r0, r1, lsl r4
    d9e4:	e2011102 	and	r1, r1, #-2147483648	; 0x80000000
    d9e8:	e0900fa3 	adds	r0, r0, r3, lsr #31
    d9ec:	e2a11000 	adc	r1, r1, #0	; 0x0
    d9f0:	e19ee083 	orrs	lr, lr, r3, lsl #1
    d9f4:	01c00fa3 	biceq	r0, r0, r3, lsr #31
    d9f8:	e8bd8070 	pop	{r4, r5, r6, pc}
    d9fc:	e2645020 	rsb	r5, r4, #32	; 0x20
    da00:	e18ee510 	orr	lr, lr, r0, lsl r5
    da04:	e1a03430 	lsr	r3, r0, r4
    da08:	e1833511 	orr	r3, r3, r1, lsl r5
    da0c:	e1a00431 	lsr	r0, r1, r4
    da10:	e2011102 	and	r1, r1, #-2147483648	; 0x80000000
    da14:	e1c00431 	bic	r0, r0, r1, lsr r4
    da18:	e0800fa3 	add	r0, r0, r3, lsr #31
    da1c:	e19ee083 	orrs	lr, lr, r3, lsl #1
    da20:	01c00fa3 	biceq	r0, r0, r3, lsr #31
    da24:	e8bd8070 	pop	{r4, r5, r6, pc}
    da28:	e3340000 	teq	r4, #0	; 0x0
    da2c:	1a000008 	bne	da54 <__aeabi_dmul+0x1c0>
    da30:	e2016102 	and	r6, r1, #-2147483648	; 0x80000000
    da34:	e1b00080 	lsls	r0, r0, #1
    da38:	e0a11001 	adc	r1, r1, r1
    da3c:	e3110601 	tst	r1, #1048576	; 0x100000
    da40:	02444001 	subeq	r4, r4, #1	; 0x1
    da44:	0afffffa 	beq	da34 <__aeabi_dmul+0x1a0>
    da48:	e1811006 	orr	r1, r1, r6
    da4c:	e3350000 	teq	r5, #0	; 0x0
    da50:	11a0f00e 	movne	pc, lr
    da54:	e2036102 	and	r6, r3, #-2147483648	; 0x80000000
    da58:	e1b02082 	lsls	r2, r2, #1
    da5c:	e0a33003 	adc	r3, r3, r3
    da60:	e3130601 	tst	r3, #1048576	; 0x100000
    da64:	02455001 	subeq	r5, r5, #1	; 0x1
    da68:	0afffffa 	beq	da58 <__aeabi_dmul+0x1c4>
    da6c:	e1833006 	orr	r3, r3, r6
    da70:	e1a0f00e 	mov	pc, lr
    da74:	e134000c 	teq	r4, ip
    da78:	e00c5a23 	and	r5, ip, r3, lsr #20
    da7c:	1135000c 	teqne	r5, ip
    da80:	0a000006 	beq	daa0 <__aeabi_dmul+0x20c>
    da84:	e1906081 	orrs	r6, r0, r1, lsl #1
    da88:	11926083 	orrsne	r6, r2, r3, lsl #1
    da8c:	1affffe5 	bne	da28 <__aeabi_dmul+0x194>
    da90:	e0211003 	eor	r1, r1, r3
    da94:	e2011102 	and	r1, r1, #-2147483648	; 0x80000000
    da98:	e3a00000 	mov	r0, #0	; 0x0
    da9c:	e8bd8070 	pop	{r4, r5, r6, pc}
    daa0:	e1906081 	orrs	r6, r0, r1, lsl #1
    daa4:	01a00002 	moveq	r0, r2
    daa8:	01a01003 	moveq	r1, r3
    daac:	11926083 	orrsne	r6, r2, r3, lsl #1
    dab0:	0a00000f 	beq	daf4 <__aeabi_dmul+0x260>
    dab4:	e134000c 	teq	r4, ip
    dab8:	1a000001 	bne	dac4 <__aeabi_dmul+0x230>
    dabc:	e1906601 	orrs	r6, r0, r1, lsl #12
    dac0:	1a00000b 	bne	daf4 <__aeabi_dmul+0x260>
    dac4:	e135000c 	teq	r5, ip
    dac8:	1a000003 	bne	dadc <__aeabi_dmul+0x248>
    dacc:	e1926603 	orrs	r6, r2, r3, lsl #12
    dad0:	11a00002 	movne	r0, r2
    dad4:	11a01003 	movne	r1, r3
    dad8:	1a000005 	bne	daf4 <__aeabi_dmul+0x260>
    dadc:	e0211003 	eor	r1, r1, r3
    dae0:	e2011102 	and	r1, r1, #-2147483648	; 0x80000000
    dae4:	e381147f 	orr	r1, r1, #2130706432	; 0x7f000000
    dae8:	e381160f 	orr	r1, r1, #15728640	; 0xf00000
    daec:	e3a00000 	mov	r0, #0	; 0x0
    daf0:	e8bd8070 	pop	{r4, r5, r6, pc}
    daf4:	e381147f 	orr	r1, r1, #2130706432	; 0x7f000000
    daf8:	e381173e 	orr	r1, r1, #16252928	; 0xf80000
    dafc:	e8bd8070 	pop	{r4, r5, r6, pc}

0000db00 <__aeabi_ddiv>:
    db00:	e92d4070 	push	{r4, r5, r6, lr}
    db04:	e3a0c0ff 	mov	ip, #255	; 0xff
    db08:	e38ccc07 	orr	ip, ip, #1792	; 0x700
    db0c:	e01c4a21 	ands	r4, ip, r1, lsr #20
    db10:	101c5a23 	andsne	r5, ip, r3, lsr #20
    db14:	1134000c 	teqne	r4, ip
    db18:	1135000c 	teqne	r5, ip
    db1c:	0b00005c 	bleq	dc94 <__aeabi_ddiv+0x194>
    db20:	e0444005 	sub	r4, r4, r5
    db24:	e021e003 	eor	lr, r1, r3
    db28:	e1925603 	orrs	r5, r2, r3, lsl #12
    db2c:	e1a01601 	lsl	r1, r1, #12
    db30:	0a00004b 	beq	dc64 <__aeabi_ddiv+0x164>
    db34:	e1a03603 	lsl	r3, r3, #12
    db38:	e3a05201 	mov	r5, #268435456	; 0x10000000
    db3c:	e1853223 	orr	r3, r5, r3, lsr #4
    db40:	e1833c22 	orr	r3, r3, r2, lsr #24
    db44:	e1a02402 	lsl	r2, r2, #8
    db48:	e1855221 	orr	r5, r5, r1, lsr #4
    db4c:	e1855c20 	orr	r5, r5, r0, lsr #24
    db50:	e1a06400 	lsl	r6, r0, #8
    db54:	e20e1102 	and	r1, lr, #-2147483648	; 0x80000000
    db58:	e1550003 	cmp	r5, r3
    db5c:	01560002 	cmpeq	r6, r2
    db60:	e2a440fd 	adc	r4, r4, #253	; 0xfd
    db64:	e2844c03 	add	r4, r4, #768	; 0x300
    db68:	2a000001 	bcs	db74 <__aeabi_ddiv+0x74>
    db6c:	e1b030a3 	lsrs	r3, r3, #1
    db70:	e1a02062 	rrx	r2, r2
    db74:	e0566002 	subs	r6, r6, r2
    db78:	e0c55003 	sbc	r5, r5, r3
    db7c:	e1b030a3 	lsrs	r3, r3, #1
    db80:	e1a02062 	rrx	r2, r2
    db84:	e3a00601 	mov	r0, #1048576	; 0x100000
    db88:	e3a0c702 	mov	ip, #524288	; 0x80000
    db8c:	e056e002 	subs	lr, r6, r2
    db90:	e0d5e003 	sbcs	lr, r5, r3
    db94:	20466002 	subcs	r6, r6, r2
    db98:	21a0500e 	movcs	r5, lr
    db9c:	2180000c 	orrcs	r0, r0, ip
    dba0:	e1b030a3 	lsrs	r3, r3, #1
    dba4:	e1a02062 	rrx	r2, r2
    dba8:	e056e002 	subs	lr, r6, r2
    dbac:	e0d5e003 	sbcs	lr, r5, r3
    dbb0:	20466002 	subcs	r6, r6, r2
    dbb4:	21a0500e 	movcs	r5, lr
    dbb8:	218000ac 	orrcs	r0, r0, ip, lsr #1
    dbbc:	e1b030a3 	lsrs	r3, r3, #1
    dbc0:	e1a02062 	rrx	r2, r2
    dbc4:	e056e002 	subs	lr, r6, r2
    dbc8:	e0d5e003 	sbcs	lr, r5, r3
    dbcc:	20466002 	subcs	r6, r6, r2
    dbd0:	21a0500e 	movcs	r5, lr
    dbd4:	2180012c 	orrcs	r0, r0, ip, lsr #2
    dbd8:	e1b030a3 	lsrs	r3, r3, #1
    dbdc:	e1a02062 	rrx	r2, r2
    dbe0:	e056e002 	subs	lr, r6, r2
    dbe4:	e0d5e003 	sbcs	lr, r5, r3
    dbe8:	20466002 	subcs	r6, r6, r2
    dbec:	21a0500e 	movcs	r5, lr
    dbf0:	218001ac 	orrcs	r0, r0, ip, lsr #3
    dbf4:	e195e006 	orrs	lr, r5, r6
    dbf8:	0a00000d 	beq	dc34 <__aeabi_ddiv+0x134>
    dbfc:	e1a05205 	lsl	r5, r5, #4
    dc00:	e1855e26 	orr	r5, r5, r6, lsr #28
    dc04:	e1a06206 	lsl	r6, r6, #4
    dc08:	e1a03183 	lsl	r3, r3, #3
    dc0c:	e1833ea2 	orr	r3, r3, r2, lsr #29
    dc10:	e1a02182 	lsl	r2, r2, #3
    dc14:	e1b0c22c 	lsrs	ip, ip, #4
    dc18:	1affffdb 	bne	db8c <__aeabi_ddiv+0x8c>
    dc1c:	e3110601 	tst	r1, #1048576	; 0x100000
    dc20:	1a000006 	bne	dc40 <__aeabi_ddiv+0x140>
    dc24:	e1811000 	orr	r1, r1, r0
    dc28:	e3a00000 	mov	r0, #0	; 0x0
    dc2c:	e3a0c102 	mov	ip, #-2147483648	; 0x80000000
    dc30:	eaffffd5 	b	db8c <__aeabi_ddiv+0x8c>
    dc34:	e3110601 	tst	r1, #1048576	; 0x100000
    dc38:	01811000 	orreq	r1, r1, r0
    dc3c:	03a00000 	moveq	r0, #0	; 0x0
    dc40:	e254c0fd 	subs	ip, r4, #253	; 0xfd
    dc44:	835c0c07 	cmphi	ip, #1792	; 0x700
    dc48:	8affff4a 	bhi	d978 <__aeabi_dmul+0xe4>
    dc4c:	e055c003 	subs	ip, r5, r3
    dc50:	0056c002 	subseq	ip, r6, r2
    dc54:	01b0c0a0 	lsrseq	ip, r0, #1
    dc58:	e2b00000 	adcs	r0, r0, #0	; 0x0
    dc5c:	e0a11a04 	adc	r1, r1, r4, lsl #20
    dc60:	e8bd8070 	pop	{r4, r5, r6, pc}
    dc64:	e20ee102 	and	lr, lr, #-2147483648	; 0x80000000
    dc68:	e18e1621 	orr	r1, lr, r1, lsr #12
    dc6c:	e09440ac 	adds	r4, r4, ip, lsr #1
    dc70:	c074500c 	rsbsgt	r5, r4, ip
    dc74:	c1811a04 	orrgt	r1, r1, r4, lsl #20
    dc78:	c8bd8070 	popgt	{r4, r5, r6, pc}
    dc7c:	e3811601 	orr	r1, r1, #1048576	; 0x100000
    dc80:	e3a0e000 	mov	lr, #0	; 0x0
    dc84:	e2544001 	subs	r4, r4, #1	; 0x1
    dc88:	eaffff3a 	b	d978 <__aeabi_dmul+0xe4>
    dc8c:	e185e006 	orr	lr, r5, r6
    dc90:	eaffff38 	b	d978 <__aeabi_dmul+0xe4>
    dc94:	e00c5a23 	and	r5, ip, r3, lsr #20
    dc98:	e134000c 	teq	r4, ip
    dc9c:	0135000c 	teqeq	r5, ip
    dca0:	0affff93 	beq	daf4 <__aeabi_dmul+0x260>
    dca4:	e134000c 	teq	r4, ip
    dca8:	1a000006 	bne	dcc8 <__aeabi_ddiv+0x1c8>
    dcac:	e1904601 	orrs	r4, r0, r1, lsl #12
    dcb0:	1affff8f 	bne	daf4 <__aeabi_dmul+0x260>
    dcb4:	e135000c 	teq	r5, ip
    dcb8:	1affff87 	bne	dadc <__aeabi_dmul+0x248>
    dcbc:	e1a00002 	mov	r0, r2
    dcc0:	e1a01003 	mov	r1, r3
    dcc4:	eaffff8a 	b	daf4 <__aeabi_dmul+0x260>
    dcc8:	e135000c 	teq	r5, ip
    dccc:	1a000004 	bne	dce4 <__aeabi_ddiv+0x1e4>
    dcd0:	e1925603 	orrs	r5, r2, r3, lsl #12
    dcd4:	0affff6d 	beq	da90 <__aeabi_dmul+0x1fc>
    dcd8:	e1a00002 	mov	r0, r2
    dcdc:	e1a01003 	mov	r1, r3
    dce0:	eaffff83 	b	daf4 <__aeabi_dmul+0x260>
    dce4:	e1906081 	orrs	r6, r0, r1, lsl #1
    dce8:	11926083 	orrsne	r6, r2, r3, lsl #1
    dcec:	1affff4d 	bne	da28 <__aeabi_dmul+0x194>
    dcf0:	e1904081 	orrs	r4, r0, r1, lsl #1
    dcf4:	1affff78 	bne	dadc <__aeabi_dmul+0x248>
    dcf8:	e1925083 	orrs	r5, r2, r3, lsl #1
    dcfc:	1affff63 	bne	da90 <__aeabi_dmul+0x1fc>
    dd00:	eaffff7b 	b	daf4 <__aeabi_dmul+0x260>

0000dd04 <__aeabi_d2uiz>:
    dd04:	e1b02081 	lsls	r2, r1, #1
    dd08:	2a00000a 	bcs	dd38 <__aeabi_d2uiz+0x34>
    dd0c:	e2922602 	adds	r2, r2, #2097152	; 0x200000
    dd10:	2a00000a 	bcs	dd40 <__aeabi_d2uiz+0x3c>
    dd14:	5a000007 	bpl	dd38 <__aeabi_d2uiz+0x34>
    dd18:	e3e03e3e 	mvn	r3, #992	; 0x3e0
    dd1c:	e0532ac2 	subs	r2, r3, r2, asr #21
    dd20:	4a000008 	bmi	dd48 <__aeabi_d2uiz+0x44>
    dd24:	e1a03581 	lsl	r3, r1, #11
    dd28:	e3833102 	orr	r3, r3, #-2147483648	; 0x80000000
    dd2c:	e1833aa0 	orr	r3, r3, r0, lsr #21
    dd30:	e1a00233 	lsr	r0, r3, r2
    dd34:	e12fff1e 	bx	lr
    dd38:	e3a00000 	mov	r0, #0	; 0x0
    dd3c:	e12fff1e 	bx	lr
    dd40:	e1900601 	orrs	r0, r0, r1, lsl #12
    dd44:	1a000001 	bne	dd50 <__aeabi_d2uiz+0x4c>
    dd48:	e3e00000 	mvn	r0, #0	; 0x0
    dd4c:	e12fff1e 	bx	lr
    dd50:	e3a00000 	mov	r0, #0	; 0x0
    dd54:	e12fff1e 	bx	lr

0000dd58 <__libc_csu_fini>:
    dd58:	e12fff1e 	bx	lr

0000dd5c <__libc_csu_init>:
    dd5c:	e92d47f0 	push	{r4, r5, r6, r7, r8, r9, sl, lr}
    dd60:	e1a0a000 	mov	sl, r0
    dd64:	e1a08001 	mov	r8, r1
    dd68:	e1a07002 	mov	r7, r2
    dd6c:	e59f9044 	ldr	r9, [pc, #68]	; ddb8 <__libc_csu_init+0x5c>
    dd70:	ebffec7c 	bl	8f68 <_init>
    dd74:	e59f3040 	ldr	r3, [pc, #64]	; ddbc <__libc_csu_init+0x60>
    dd78:	e59f5040 	ldr	r5, [pc, #64]	; ddc0 <__libc_csu_init+0x64>
    dd7c:	e0693003 	rsb	r3, r9, r3
    dd80:	e1b06143 	asrs	r6, r3, #2
    dd84:	e08f5005 	add	r5, pc, r5
    dd88:	08bd87f0 	popeq	{r4, r5, r6, r7, r8, r9, sl, pc}
    dd8c:	e3a04000 	mov	r4, #0	; 0x0
    dd90:	e0853009 	add	r3, r5, r9
    dd94:	e1a0000a 	mov	r0, sl
    dd98:	e1a01008 	mov	r1, r8
    dd9c:	e1a02007 	mov	r2, r7
    dda0:	e1a0e00f 	mov	lr, pc
    dda4:	e793f104 	ldr	pc, [r3, r4, lsl #2]
    dda8:	e2844001 	add	r4, r4, #1	; 0x1
    ddac:	e1560004 	cmp	r6, r4
    ddb0:	1afffff6 	bne	dd90 <__libc_csu_init+0x34>
    ddb4:	e8bd87f0 	pop	{r4, r5, r6, r7, r8, r9, sl, pc}
    ddb8:	fffffed4 	.word	0xfffffed4
    ddbc:	fffffed8 	.word	0xfffffed8
    ddc0:	00009788 	.word	0x00009788
Disassembly of section .fini:

0000ddc4 <_fini>:
    ddc4:	e52de004 	push	{lr}		; (str lr, [sp, #-4]!)
    ddc8:	e24dd004 	sub	sp, sp, #4	; 0x4
    ddcc:	e28dd004 	add	sp, sp, #4	; 0x4
    ddd0:	e8bd8000 	pop	{pc}
